(dp0
S'TTbXRegionCSector7'
p1
(dp2
I0
(F365.7892761230469
F47.07603454589844
F2640.044189453125
tp3
sI1
(F365.7846984863281
F141.67930603027344
F2639.980712890625
tp4
sI2
(F365.7929992675781
F236.27352905273438
F2639.917236328125
tp5
sS'average'
p6
(F365.7889912923177
F141.6762898763021
F2639.980712890625
tp7
ssS'TTaURegionBSector16'
p8
(dp9
I0
(F91.50192260742188
F47.07598114013672
F2367.5576171875
tp10
sg6
(F91.50192260742188
F47.07598114013672
F2367.5576171875
tp11
ssS'TTaURegionCSector5'
p12
(dp13
I0
(F220.24879455566406
F-612.593994140625
F2367.78515625
tp14
sI1
(F228.51051330566406
F-518.34716796875
F2367.73095703125
tp15
sI2
(F236.766845703125
F-424.11065673828125
F2367.677001953125
tp16
sI3
(F245.02268981933594
F-329.87078857421875
F2367.623046875
tp17
sg6
(F232.63721084594727
F-471.23065185546875
F2367.7040405273438
tp18
ssS'TTbVRegionBSector8'
p19
(dp20
I0
(F-91.90313720703125
F47.08344650268555
F2603.2568359375
tp21
sg6
(F-91.90313720703125
F47.08344650268555
F2603.2568359375
tp22
ssS'TTbVRegionBSector9'
p23
(dp24
I0
(F-100.11626434326172
F141.3262481689453
F2603.25341796875
tp25
sI1
(F-108.3275146484375
F235.56837463378906
F2603.25
tp26
sg6
(F-104.22188949584961
F188.4473114013672
F2603.251708984375
tp27
ssS'TTbVRegionBSector6'
p28
(dp29
I0
(F-67.26087951660156
F-235.5928497314453
F2603.2666015625
tp30
sI1
(F-75.4914321899414
F-141.35487365722656
F2603.263427734375
tp31
sg6
(F-71.37615585327148
F-188.47386169433594
F2603.2650146484375
tp32
ssS'TTbVRegionBSector7'
p33
(dp34
I0
(F-83.70480346679688
F-47.11375427246094
F2603.260009765625
tp35
sg6
(F-83.70480346679688
F-47.11375427246094
F2603.260009765625
tp36
ssS'TTbVRegionBSector4'
p37
(dp38
I0
(F-209.8178253173828
F329.6807556152344
F2598.73388671875
tp39
sI1
(F-218.07774353027344
F423.9194641113281
F2598.73388671875
tp40
sI2
(F-226.33917236328125
F518.1613159179688
F2598.73388671875
tp41
sI3
(F-234.59336853027344
F612.3988647460938
F2598.734130859375
tp42
sg6
(F-222.20702743530273
F471.04010009765625
F2598.7339477539062
tp43
ssS'TTbVRegionBSector5'
p44
(dp45
I0
(F-34.43213653564453
F-612.5784912109375
F2603.27978515625
tp46
sI1
(F-42.63121032714844
F-518.3270263671875
F2603.276611328125
tp47
sI2
(F-50.84943771362305
F-424.08551025390625
F2603.273193359375
tp48
sI3
(F-59.059207916259766
F-329.8399353027344
F2603.27001953125
tp49
sg6
(F-46.742998123168945
F-471.2077407836914
F2603.27490234375
tp50
ssS'TTbVRegionBSector2'
p51
(dp52
I0
(F-160.260009765625
F-235.70391845703125
F2598.733154296875
tp53
sI1
(F-168.51966857910156
F-141.47015380859375
F2598.7333984375
tp54
sI2
(F-176.776611328125
F-47.23118591308594
F2598.7333984375
tp55
sg6
(F-168.51876322428384
F-141.46841939290366
F2598.7333170572915
tp56
ssS'TTbVRegionBSector3'
p57
(dp58
I0
(F-185.03892517089844
F46.96538162231445
F2598.7333984375
tp59
sI1
(F-193.2881317138672
F141.203369140625
F2598.733642578125
tp60
sI2
(F-201.5600128173828
F235.44102478027344
F2598.733642578125
tp61
sg6
(F-193.29568990071616
F141.2032585144043
F2598.7335611979165
tp62
ssS'TTbVRegionBSector1'
p63
(dp64
I0
(F-127.22154998779297
F-612.6605224609375
F2598.73291015625
tp65
sI1
(F-135.47900390625
F-518.4116821289062
F2598.73291015625
tp66
sI2
(F-143.74229431152344
F-424.1757507324219
F2598.733154296875
tp67
sI3
(F-152.0038299560547
F-329.9413146972656
F2598.733154296875
tp68
sg6
(F-139.61166954040527
F-471.2973175048828
F2598.7330322265625
tp69
ssS'TTaXRegionASector24'
p70
(dp71
I0
(F-180.0836181640625
F330.8581848144531
F2330.783935546875
tp72
sI1
(F-180.10125732421875
F425.4598388671875
F2330.802734375
tp73
sI2
(F-180.11529541015625
F520.0631103515625
F2330.82177734375
tp74
sI3
(F-180.16542053222656
F614.6499633789062
F2330.840576171875
tp75
sg6
(F-180.11639785766602
F472.75777435302734
F2330.812255859375
tp76
ssS'TTaURegionBSector15'
p77
(dp78
I0
(F83.26622009277344
F-47.110511779785156
F2367.607421875
tp79
sg6
(F83.26622009277344
F-47.110511779785156
F2367.607421875
tp80
ssS'TTaURegionASector9'
p81
(dp82
I0
(F-513.2051391601562
F-612.7720947265625
F2367.572998046875
tp83
sI1
(F-505.0083312988281
F-518.5311889648438
F2367.579833984375
tp84
sI2
(F-496.7990417480469
F-424.28143310546875
F2367.586669921875
tp85
sI3
(F-488.5958557128906
F-330.0369567871094
F2367.593505859375
tp86
sg6
(F-500.90209197998047
F-471.4054183959961
F2367.583251953125
tp87
ssS'TTaXRegionBSector17'
p88
(dp89
I0
(F87.04581451416016
F141.98052978515625
F2335.511962890625
tp90
sI1
(F87.05362701416016
F236.58299255371094
F2335.467529296875
tp91
sg6
(F87.04972076416016
F189.2817611694336
F2335.48974609375
tp92
ssS'TTaXRegionBSector12'
p93
(dp94
I0
(F0.26123419404029846
F368.0922546386719
F2322.961181640625
tp95
sI1
(F0.24533458054065704
F462.69061279296875
F2322.961181640625
tp96
sI2
(F0.22665488719940186
F557.292236328125
F2322.961181640625
tp97
sI3
(F0.2016121745109558
F651.899658203125
F2322.961181640625
tp98
sg6
(F0.2337089590728283
F509.99369049072266
F2322.961181640625
tp99
ssS'TTaURegionASector8'
p100
(dp101
I0
(F-523.8306274414062
F329.6467590332031
F2372.111328125
tp102
sI1
(F-515.621337890625
F423.8923645019531
F2372.12646484375
tp103
sI2
(F-507.397216796875
F518.1309204101562
F2372.1416015625
tp104
sI3
(F-499.1903991699219
F612.3800659179688
F2372.15673828125
tp105
sg6
(F-511.50989532470703
F471.0125274658203
F2372.134033203125
tp106
ssS'TTbVRegionCSector11'
p107
(dp108
I0
(F456.1871032714844
F47.02385330200195
F2603.288330078125
tp109
sI1
(F447.97027587890625
F141.26632690429688
F2603.257080078125
tp110
sI2
(F439.7503356933594
F235.5076904296875
F2603.225830078125
tp111
sg6
(F447.96923828125
F141.2659568786621
F2603.257080078125
tp112
ssS'TTbVRegionCSector10'
p113
(dp114
I0
(F480.8346252441406
F-235.65774536132812
F2603.382080078125
tp115
sI1
(F472.617919921875
F-141.42105102539062
F2603.350830078125
tp116
sI2
(F464.4033508300781
F-47.176734924316406
F2603.319580078125
tp117
sg6
(F472.61863199869794
F-141.41851043701172
F2603.350830078125
tp118
ssS'TTbVRegionCSector13'
p119
(dp120
I0
(F606.5275268554688
F-612.6555786132812
F2598.93701171875
tp121
sI1
(F598.3065185546875
F-518.4085083007812
F2598.908447265625
tp122
sI2
(F590.0877075195312
F-424.1736145019531
F2598.879638671875
tp123
sI3
(F581.84814453125
F-329.93231201171875
F2598.85107421875
tp124
sg6
(F594.1924743652344
F-471.2925033569336
F2598.89404296875
tp125
ssS'TTbVRegionCSector12'
p126
(dp127
I0
(F431.53338623046875
F329.74932861328125
F2603.194580078125
tp128
sI1
(F423.3020935058594
F423.99383544921875
F2603.163330078125
tp129
sI2
(F415.09735107421875
F518.2315673828125
F2603.13232421875
tp130
sI3
(F406.8775329589844
F612.4804077148438
F2603.10107421875
tp131
sg6
(F419.2025909423828
F471.11378479003906
F2603.1478271484375
tp132
ssS'TTbVRegionCSector15'
p133
(dp134
I0
(F548.9384765625
F46.98862838745117
F2598.736328125
tp135
sI1
(F540.718017578125
F141.225830078125
F2598.707763671875
tp136
sI2
(F532.4900512695312
F235.46566772460938
F2598.67919921875
tp137
sg6
(F540.7155151367188
F141.22670873006186
F2598.707763671875
tp138
ssS'TTbVRegionCSector14'
p139
(dp140
I0
(F573.6287841796875
F-235.68759155273438
F2598.822509765625
tp141
sI1
(F565.3982543945312
F-141.44549560546875
F2598.793701171875
tp142
sI2
(F557.158203125
F-47.20752716064453
F2598.76513671875
tp143
sg6
(F565.3950805664062
F-141.44687143961588
F2598.7937825520835
tp144
ssS'TTbVRegionCSector17'
p145
(dp146
I0
(F699.1521606445312
F-612.5752563476562
F2603.400146484375
tp147
sI1
(F690.9374389648438
F-518.3359375
F2603.3798828125
tp148
sI2
(F682.7244873046875
F-424.0914611816406
F2603.359375
tp149
sI3
(F674.5098876953125
F-329.84466552734375
F2603.339111328125
tp150
sg6
(F686.8309936523438
F-471.21183013916016
F2603.36962890625
tp151
ssS'TTbVRegionCSector16'
p152
(dp153
I0
(F524.2490234375
F329.71014404296875
F2598.650390625
tp154
sI1
(F516.03076171875
F423.955810546875
F2598.621826171875
tp155
sI2
(F507.803955078125
F518.1965942382812
F2598.593017578125
tp156
sI3
(F499.5777282714844
F612.4415283203125
F2598.564453125
tp157
sg6
(F511.91536712646484
F471.0760192871094
F2598.607421875
tp158
ssS'TTbVRegionCSector19'
p159
(dp160
I0
(F641.6582641601562
F47.0821647644043
F2603.2578125
tp161
sI1
(F633.44580078125
F141.3233642578125
F2603.237548828125
tp162
sI2
(F625.242431640625
F235.56617736816406
F2603.217041015625
tp163
sg6
(F633.4488321940104
F141.32390213012695
F2603.2374674479165
tp164
ssS'TTbVRegionCSector18'
p165
(dp166
I0
(F666.2907104492188
F-235.6024169921875
F2603.31884765625
tp167
sI1
(F658.0822143554688
F-141.36087036132812
F2603.29833984375
tp168
sI2
(F649.8714599609375
F-47.114559173583984
F2603.278076171875
tp169
sg6
(F658.0814615885416
F-141.35928217569986
F2603.2984212239585
tp170
ssS'TTbXRegionBSector14'
p171
(dp172
I0
(F0.4771570563316345
F84.1160888671875
F2647.369384765625
tp173
sg6
(F0.4771570563316345
F84.1160888671875
F2647.369384765625
tp174
ssS'TTbXRegionBSector15'
p175
(dp176
I0
(F0.35207438468933105
F178.71353149414062
F2647.369384765625
tp177
sI1
(F0.22873437404632568
F273.3183898925781
F2647.369384765625
tp178
sg6
(F0.29040437936782837
F226.01596069335938
F2647.369384765625
tp179
ssS'TTbXRegionBSector12'
p180
(dp181
I0
(F-0.7198694944381714
F-273.7631530761719
F2648.393310546875
tp182
sI1
(F-0.8966333270072937
F-179.16494750976562
F2648.393310546875
tp183
sg6
(F-0.8082514107227325
F-226.46405029296875
F2648.393310546875
tp184
ssS'TTbXRegionBSector13'
p185
(dp186
I0
(F-1.0736247301101685
F-84.56346893310547
F2648.393310546875
tp187
sg6
(F-1.0736247301101685
F-84.56346893310547
F2648.393310546875
tp188
ssS'TTbXRegionBSector10'
p189
(dp190
I0
(F-87.2791519165039
F331.1052551269531
F2635.224609375
tp191
sI1
(F-87.27877044677734
F425.7077331542969
F2635.248779296875
tp192
sI2
(F-87.25697326660156
F520.3077392578125
F2635.27294921875
tp193
sI3
(F-87.23406219482422
F614.9208984375
F2635.29736328125
tp194
sg6
(F-87.26223945617676
F473.0104064941406
F2635.2609252929688
tp195
ssS'TTbXRegionBSector11'
p196
(dp197
I0
(F-0.0055180322378873825
F-652.1674194335938
F2648.393310546875
tp198
sI1
(F-0.1781570166349411
F-557.5601806640625
F2648.393310546875
tp199
sI2
(F-0.36434119939804077
F-462.9595031738281
F2648.393310546875
tp200
sI3
(F-0.5456852316856384
F-368.3638000488281
F2648.393310546875
tp201
sg6
(F-0.2734253699891269
F-510.2627258300781
F2648.393310546875
tp202
ssS'TTaURegionCSector6'
p203
(dp204
I0
(F253.28163146972656
F-235.63201904296875
F2367.569091796875
tp205
sI1
(F261.5313720703125
F-141.3973846435547
F2367.514892578125
tp206
sI2
(F269.78631591796875
F-47.15826416015625
F2367.4609375
tp207
sg6
(F261.5331064860026
F-141.39588928222656
F2367.5149739583335
tp208
ssS'TTaURegionASector5'
p209
(dp210
I0
(F-606.0223388671875
F-612.7339477539062
F2371.9599609375
tp211
sI1
(F-597.805419921875
F-518.486572265625
F2371.97509765625
tp212
sI2
(F-589.58154296875
F-424.246337890625
F2371.990234375
tp213
sI3
(F-581.3670043945312
F-330.0028381347656
F2372.00537109375
tp214
sg6
(F-593.6940765380859
F-471.36742401123047
F2371.982666015625
tp215
ssS'TTaXRegionCSector19'
p216
(dp217
I0
(F550.3988647460938
F47.17597579956055
F2330.64794921875
tp218
sI1
(F550.451416015625
F141.7767791748047
F2330.624267578125
tp219
sI2
(F550.4710083007812
F236.3776092529297
F2330.600341796875
tp220
sg6
(F550.4404296875
F141.77678807576498
F2330.6241861979165
tp221
ssS'TTaURegionASector4'
p222
(dp223
I0
(F-616.47216796875
F329.58258056640625
F2367.6865234375
tp224
sI1
(F-608.2291259765625
F423.8235778808594
F2367.695068359375
tp225
sI2
(F-599.9859008789062
F518.0637817382812
F2367.70361328125
tp226
sI3
(F-591.7462158203125
F612.3075561523438
F2367.712158203125
tp227
sg6
(F-604.1083526611328
F470.94437408447266
F2367.6993408203125
tp228
ssS'TTbXRegionCSector9'
p229
(dp230
I0
(F458.5213623046875
F-615.0341186523438
F2635.781982421875
tp231
sI1
(F458.5309143066406
F-520.438232421875
F2635.735107421875
tp232
sI2
(F458.5362548828125
F-425.8390808105469
F2635.688232421875
tp233
sI3
(F458.5465393066406
F-331.2358093261719
F2635.641357421875
tp234
sg6
(F458.5337677001953
F-473.1368103027344
F2635.711669921875
tp235
ssS'TTaXRegionBSector4'
p236
(dp237
I0
(F-87.2789077758789
F47.14345169067383
F2335.135498046875
tp238
sg6
(F-87.2789077758789
F47.14345169067383
F2335.135498046875
tp239
ssS'TTaXRegionCSector10'
p240
(dp241
I0
(F365.5653076171875
F-236.4706573486328
F2330.816162109375
tp242
sI1
(F365.59954833984375
F-141.87149047851562
F2330.78662109375
tp243
sI2
(F365.6209716796875
F-47.2690315246582
F2330.757080078125
tp244
sg6
(F365.59527587890625
F-141.8703931172689
F2330.78662109375
tp245
ssS'TTaXRegionCSector11'
p246
(dp247
I0
(F365.6593933105469
F47.283424377441406
F2330.727783203125
tp248
sI1
(F365.6874694824219
F141.8875274658203
F2330.6982421875
tp249
sI2
(F365.7216491699219
F236.4825897216797
F2330.668701171875
tp250
sg6
(F365.6895039876302
F141.88451385498047
F2330.6982421875
tp251
ssS'TTaXRegionCSector12'
p252
(dp253
I0
(F365.751708984375
F331.0867004394531
F2330.63916015625
tp254
sI1
(F365.7845153808594
F425.6833801269531
F2330.609619140625
tp255
sI2
(F365.82354736328125
F520.2833862304688
F2330.580078125
tp256
sI3
(F365.85040283203125
F614.8883056640625
F2330.550537109375
tp257
sg6
(F365.8025436401367
F472.9854431152344
F2330.5948486328125
tp258
ssS'TTaXRegionBSector16'
p259
(dp260
I0
(F87.04261016845703
F47.37971878051758
F2335.556640625
tp261
sg6
(F87.04261016845703
F47.37971878051758
F2335.556640625
tp262
ssS'TTaXRegionBSector1'
p263
(dp264
I0
(F-87.35169219970703
F-615.0155639648438
F2335.02880859375
tp265
sI1
(F-87.3501205444336
F-520.4089965820312
F2335.0439453125
tp266
sI2
(F-87.3392105102539
F-425.8122863769531
F2335.059326171875
tp267
sI3
(F-87.3206558227539
F-331.2098388671875
F2335.074462890625
tp268
sg6
(F-87.34041976928711
F-473.1116714477539
F2335.0516357421875
tp269
ssS'TTaXRegionCSector15'
p270
(dp271
I0
(F457.99713134765625
F47.14332962036133
F2335.17626953125
tp272
sI1
(F458.0147705078125
F141.73838806152344
F2335.153564453125
tp273
sI2
(F458.0316162109375
F236.3367462158203
F2335.130859375
tp274
sg6
(F458.01450602213544
F141.7394879659017
F2335.153564453125
tp275
ssS'TTaXRegionCSector16'
p276
(dp277
I0
(F458.04388427734375
F330.93756103515625
F2335.108154296875
tp278
sI1
(F458.068359375
F425.5375671386719
F2335.08544921875
tp279
sI2
(F458.0910339355469
F520.140869140625
F2335.062744140625
tp280
sI3
(F458.10711669921875
F614.7424926757812
F2335.0400390625
tp281
sg6
(F458.07759857177734
F472.8396224975586
F2335.0740966796875
tp282
ssS'TTaXRegionCSector17'
p283
(dp284
I0
(F550.1327514648438
F-614.9755859375
F2330.814208984375
tp285
sI1
(F550.1715698242188
F-520.3715209960938
F2330.790283203125
tp286
sI2
(F550.1989135742188
F-425.7739562988281
F2330.7666015625
tp287
sI3
(F550.2589721679688
F-331.16656494140625
F2330.742919921875
tp288
sg6
(F550.1905517578125
F-473.07190704345703
F2330.7785034179688
tp289
ssS'TTaXRegionCSector18'
p290
(dp291
I0
(F550.2899169921875
F-236.56741333007812
F2330.71923828125
tp292
sI1
(F550.326904296875
F-141.97235107421875
F2330.6953125
tp293
sI2
(F550.3600463867188
F-47.3740119934082
F2330.671630859375
tp294
sg6
(F550.3256225585938
F-141.97125879923502
F2330.6953938802085
tp295
ssS'TTaXRegionBSector11'
p296
(dp297
I0
(F0.28781354427337646
F178.8922576904297
F2322.961181640625
tp298
sI1
(F0.2781343460083008
F273.493896484375
F2322.961181640625
tp299
sg6
(F0.2829739451408386
F226.19307708740234
F2322.961181640625
tp300
ssS'TTaURegionASector23'
p301
(dp302
I0
(F-176.62930297851562
F47.00925827026367
F2371.9072265625
tp303
sI1
(F-168.3840789794922
F141.24264526367188
F2371.91162109375
tp304
sI2
(F-160.14492797851562
F235.4906005859375
F2371.916015625
tp305
sg6
(F-168.38610331217447
F141.24750137329102
F2371.91162109375
tp306
ssS'TTaXRegionASector22'
p307
(dp308
I0
(F-179.95692443847656
F-236.69259643554688
F2330.67041015625
tp309
sI1
(F-179.98179626464844
F-142.09425354003906
F2330.689208984375
tp310
sI2
(F-180.00265502929688
F-47.49589920043945
F2330.708251953125
tp311
sg6
(F-179.98045857747397
F-142.0942497253418
F2330.6892903645835
tp312
ssS'TTaURegionCSector3'
p313
(dp314
I0
(F184.7972412109375
F47.10202407836914
F2372.037109375
tp315
sI1
(F193.04425048828125
F141.34019470214844
F2371.982666015625
tp316
sI2
(F201.2928466796875
F235.5740966796875
F2371.927978515625
tp317
sg6
(F193.0447794596354
F141.33877182006836
F2371.9825846354165
tp318
ssS'TTaURegionCSector2'
p319
(dp320
I0
(F160.033203125
F-235.5701904296875
F2372.200927734375
tp321
sI1
(F168.2885284423828
F-141.33522033691406
F2372.146240234375
tp322
sI2
(F176.5406494140625
F-47.09172058105469
F2372.091796875
tp323
sg6
(F168.28746032714844
F-141.3323771158854
F2372.1463216145835
tp324
ssS'TTaURegionCSector1'
p325
(dp326
I0
(F127.01655578613281
F-612.5286254882812
F2372.419189453125
tp327
sI1
(F135.27552795410156
F-518.284912109375
F2372.36474609375
tp328
sI2
(F143.52737426757812
F-424.04632568359375
F2372.31005859375
tp329
sI3
(F151.7853240966797
F-329.8091125488281
F2372.25537109375
tp330
sg6
(F139.40119552612305
F-471.16724395751953
F2372.3373413085938
tp331
ssS'TTaURegionCSector7'
p332
(dp333
I0
(F278.0390625
F47.03664779663086
F2367.406982421875
tp334
sI1
(F286.3000183105469
F141.27525329589844
F2367.35302734375
tp335
sI2
(F294.5532531738281
F235.5194854736328
F2367.298828125
tp336
sg6
(F286.2974446614583
F141.27712885538736
F2367.3529459635415
tp337
ssS'TTaURegionBSector18'
p338
(dp339
I0
(F116.2734603881836
F329.80352783203125
F2367.40869140625
tp340
sI1
(F124.51415252685547
F424.042236328125
F2367.359130859375
tp341
sI2
(F132.7603302001953
F518.2838134765625
F2367.309326171875
tp342
sI3
(F141.00502014160156
F612.5287475585938
F2367.259765625
tp343
sg6
(F128.63824081420898
F471.1645812988281
F2367.334228515625
tp344
ssS'TTbXRegionCSector8'
p345
(dp346
I0
(F365.79840087890625
F330.8768005371094
F2639.853759765625
tp347
sI1
(F365.8028564453125
F425.4759521484375
F2639.790283203125
tp348
sI2
(F365.8077087402344
F520.0767822265625
F2639.726806640625
tp349
sI3
(F365.8149108886719
F614.6832885742188
F2639.663330078125
tp350
sg6
(F365.80596923828125
F472.77820587158203
F2639.758544921875
tp351
ssS'TTaURegionCSector4'
p352
(dp353
I0
(F209.54957580566406
F329.8196716308594
F2371.873291015625
tp354
sI1
(F217.81027221679688
F424.05828857421875
F2371.81884765625
tp355
sI2
(F226.06536865234375
F518.294921875
F2371.76416015625
tp356
sI3
(F234.3141326904297
F612.5411987304688
F2371.709716796875
tp357
sg6
(F221.9348373413086
F471.1785202026367
F2371.79150390625
tp358
ssS'TTaURegionCSector9'
p359
(dp360
I0
(F313.47381591796875
F-612.5675048828125
F2372.10791015625
tp361
sI1
(F321.7095642089844
F-518.3258666992188
F2372.080322265625
tp362
sI2
(F329.9588928222656
F-424.08294677734375
F2372.052734375
tp363
sI3
(F338.2018737792969
F-329.83697509765625
F2372.025146484375
tp364
sg6
(F325.8360366821289
F-471.2033233642578
F2372.0665283203125
tp365
ssS'TTaURegionCSector8'
p366
(dp367
I0
(F302.80718994140625
F329.7454833984375
F2367.244873046875
tp368
sI1
(F311.06427001953125
F423.9902038574219
F2367.19091796875
tp369
sI2
(F319.322998046875
F518.2306518554688
F2367.136962890625
tp370
sI3
(F327.57635498046875
F612.4740600585938
F2367.082763671875
tp371
sg6
(F315.1927032470703
F471.11009979248047
F2367.1638793945312
tp372
ssS'TTaURegionBSector4'
p373
(dp374
I0
(F-83.36183166503906
F47.09080505371094
F2367.1357421875
tp375
sg6
(F-83.36183166503906
F47.09080505371094
F2367.1357421875
tp376
ssS'TTaURegionBSector5'
p377
(dp378
I0
(F-75.1618881225586
F141.3306121826172
F2367.1328125
tp379
sI1
(F-66.96566009521484
F235.57571411132812
F2367.1298828125
tp380
sg6
(F-71.06377410888672
F188.45316314697266
F2367.13134765625
tp381
ssS'TTaURegionBSector6'
p382
(dp383
I0
(F-58.77604675292969
F329.81890869140625
F2367.126953125
tp384
sI1
(F-50.5795783996582
F424.06231689453125
F2367.1240234375
tp385
sI2
(F-42.35135269165039
F518.3038330078125
F2367.12109375
tp386
sI3
(F-34.16745376586914
F612.5524291992188
F2367.1181640625
tp387
sg6
(F-46.468607902526855
F471.1843719482422
F2367.12255859375
tp388
ssS'TTaURegionBSector7'
p389
(dp390
I0
(F-56.955841064453125
F-649.7747192382812
F2379.14404296875
tp391
sI1
(F-48.52244567871094
F-555.5447387695312
F2379.14404296875
tp392
sI2
(F-40.083587646484375
F-461.318603515625
F2379.14404296875
tp393
sI3
(F-31.641414642333984
F-367.1018371582031
F2379.14404296875
tp394
sg6
(F-44.300822257995605
F-508.43497467041016
F2379.14404296875
tp395
ssS'TTaURegionBSector1'
p396
(dp397
I0
(F-140.74290466308594
F-612.5814208984375
F2367.15625
tp398
sI1
(F-132.6191864013672
F-518.3853149414062
F2367.1533203125
tp399
sI2
(F-124.3682632446289
F-424.09051513671875
F2367.150390625
tp400
sI3
(F-116.1831283569336
F-329.8436584472656
F2367.1474609375
tp401
sg6
(F-128.4783706665039
F-471.22522735595703
F2367.15185546875
tp402
ssS'TTaURegionBSector2'
p403
(dp404
I0
(F-107.9958724975586
F-235.5977783203125
F2367.14453125
tp405
sI1
(F-99.80998992919922
F-141.3559112548828
F2367.1416015625
tp406
sg6
(F-103.9029312133789
F-188.47684478759766
F2367.14306640625
tp407
ssS'TTaURegionBSector3'
p408
(dp409
I0
(F-91.4851303100586
F-47.122833251953125
F2367.138671875
tp410
sg6
(F-91.4851303100586
F-47.122833251953125
F2367.138671875
tp411
ssS'TTaXRegionCSector13'
p412
(dp413
I0
(F457.85638427734375
F-615.017333984375
F2335.335205078125
tp414
sI1
(F457.8830871582031
F-520.4140625
F2335.3125
tp415
sI2
(F457.908935546875
F-425.8157043457031
F2335.289794921875
tp416
sI3
(F457.9283752441406
F-331.2198181152344
F2335.26708984375
tp417
sg6
(F457.8941955566406
F-473.1167297363281
F2335.3011474609375
tp418
ssS'TTaXRegionASector21'
p419
(dp420
I0
(F-179.8731689453125
F-615.0999755859375
F2330.5947265625
tp421
sI1
(F-179.89817810058594
F-520.4926147460938
F2330.613525390625
tp422
sI2
(F-179.9178466796875
F-425.8950500488281
F2330.632568359375
tp423
sI3
(F-179.9392852783203
F-331.29425048828125
F2330.6513671875
tp424
sg6
(F-179.90711975097656
F-473.19547271728516
F2330.623046875
tp425
ssS'TTaURegionBSector8'
p426
(dp427
I0
(F-23.198694229125977
F-272.8752136230469
F2379.14404296875
tp428
sI1
(F-14.7664794921875
F-178.65753173828125
F2379.14404296875
tp429
sg6
(F-18.98258686065674
F-225.76637268066406
F2379.14404296875
tp430
ssS'TTaURegionBSector9'
p431
(dp432
I0
(F-6.340362071990967
F-84.4384994506836
F2379.14404296875
tp433
sg6
(F-6.340362071990967
F-84.4384994506836
F2379.14404296875
tp434
ssS'TTaXRegionASector1'
p435
(dp436
I0
(F-642.915283203125
F-615.1102905273438
F2335.4150390625
tp437
sI1
(F-642.9255981445312
F-520.5028686523438
F2335.42626953125
tp438
sI2
(F-642.927978515625
F-425.9078063964844
F2335.4375
tp439
sI3
(F-642.9404907226562
F-331.30780029296875
F2335.44873046875
tp440
sg6
(F-642.9273376464844
F-473.20719146728516
F2335.431884765625
tp441
ssS'TTaXRegionASector2'
p442
(dp443
I0
(F-642.9556274414062
F-236.70944213867188
F2335.4599609375
tp444
sI1
(F-642.9785766601562
F-142.10780334472656
F2335.47119140625
tp445
sI2
(F-642.9940795898438
F-47.50368881225586
F2335.482666015625
tp446
sg6
(F-642.9760945638021
F-142.10697809855142
F2335.4712727864585
tp447
ssS'TTaXRegionASector3'
p448
(dp449
I0
(F-642.995849609375
F47.04301834106445
F2335.493896484375
tp450
sI1
(F-643.0155639648438
F141.64794921875
F2335.505126953125
tp451
sI2
(F-643.0386962890625
F236.2504119873047
F2335.516357421875
tp452
sg6
(F-643.0167032877604
F141.6471265157064
F2335.505126953125
tp453
ssS'TTaXRegionASector4'
p454
(dp455
I0
(F-643.0470581054688
F330.8454895019531
F2335.527587890625
tp456
sI1
(F-643.0548095703125
F425.4462890625
F2335.538818359375
tp457
sI2
(F-643.0733642578125
F520.0463256835938
F2335.550048828125
tp458
sI3
(F-643.0772705078125
F614.64794921875
F2335.561279296875
tp459
sg6
(F-643.0631256103516
F472.7465133666992
F2335.54443359375
tp460
ssS'TTaXRegionASector5'
p461
(dp462
I0
(F-550.4487915039062
F-615.1617431640625
F2330.936279296875
tp463
sI1
(F-550.4637451171875
F-520.56005859375
F2330.94873046875
tp464
sI2
(F-550.4906616210938
F-425.95843505859375
F2330.961181640625
tp465
sI3
(F-550.517822265625
F-331.360107421875
F2330.973876953125
tp466
sg6
(F-550.4802551269531
F-473.2600860595703
F2330.9550170898438
tp467
ssS'TTaXRegionASector6'
p468
(dp469
I0
(F-550.5391845703125
F-236.76092529296875
F2330.986328125
tp470
sI1
(F-550.5677490234375
F-142.1568145751953
F2330.998779296875
tp471
sI2
(F-550.6021118164062
F-47.55764389038086
F2331.01123046875
tp472
sg6
(F-550.5696818033854
F-142.1584612528483
F2330.998779296875
tp473
ssS'TTaXRegionASector7'
p474
(dp475
I0
(F-550.6200561523438
F46.98988342285156
F2331.023681640625
tp476
sI1
(F-550.6434936523438
F141.6022186279297
F2331.0361328125
tp477
sI2
(F-550.67529296875
F236.1989288330078
F2331.048583984375
tp478
sg6
(F-550.6462809244791
F141.59701029459634
F2331.0361328125
tp479
ssS'TTaXRegionASector8'
p480
(dp481
I0
(F-550.7036743164062
F330.798095703125
F2331.061279296875
tp482
sI1
(F-550.7207641601562
F425.40057373046875
F2331.07373046875
tp483
sI2
(F-550.7433471679688
F519.9964599609375
F2331.086181640625
tp484
sI3
(F-550.771484375
F614.5989379882812
F2331.0986328125
tp485
sg6
(F-550.7348175048828
F472.6985168457031
F2331.0799560546875
tp486
ssS'TTaXRegionASector9'
p487
(dp488
I0
(F-457.8287658691406
F-615.218994140625
F2335.263916015625
tp489
sI1
(F-457.8731994628906
F-520.6082763671875
F2335.28076171875
tp490
sI2
(F-457.91595458984375
F-426.01324462890625
F2335.297607421875
tp491
sI3
(F-457.94964599609375
F-331.4140930175781
F2335.314208984375
tp492
sg6
(F-457.8918914794922
F-473.3136520385742
F2335.2891235351562
tp493
ssS'TTaURegionBSector11'
p494
(dp495
I0
(F15.978423118591309
F178.0807342529297
F2379.10498046875
tp496
sI1
(F24.19776725769043
F272.31390380859375
F2379.10498046875
tp497
sg6
(F20.08809518814087
F225.19731903076172
F2379.10498046875
tp498
ssS'TTaXRegionCSector24'
p499
(dp500
I0
(F643.1134033203125
F331.02996826171875
F2335.157470703125
tp501
sI1
(F643.1558227539062
F425.6233825683594
F2335.14599609375
tp502
sI2
(F643.174560546875
F520.2241821289062
F2335.134765625
tp503
sI3
(F643.2122802734375
F614.8250122070312
F2335.123291015625
tp504
sg6
(F643.1640167236328
F472.9256362915039
F2335.140380859375
tp505
ssS'TTaXRegionCSector21'
p506
(dp507
I0
(F642.7822265625
F-614.9323120117188
F2335.27197265625
tp508
sI1
(F642.81787109375
F-520.3356323242188
F2335.260498046875
tp509
sI2
(F642.8478393554688
F-425.7273864746094
F2335.2490234375
tp510
sI3
(F642.8831787109375
F-331.1290283203125
F2335.23779296875
tp511
sg6
(F642.8327789306641
F-473.03108978271484
F2335.2548217773438
tp512
ssS'TTaXRegionCSector20'
p513
(dp514
I0
(F550.514892578125
F330.9858093261719
F2330.57666015625
tp515
sI1
(F550.5446166992188
F425.5816955566406
F2330.552978515625
tp516
sI2
(F550.5833740234375
F520.1775512695312
F2330.529296875
tp517
sI3
(F550.6408081054688
F614.7833251953125
F2330.50537109375
tp518
sg6
(F550.5709228515625
F472.88209533691406
F2330.5410766601562
tp519
ssS'TTaXRegionCSector23'
p520
(dp521
I0
(F643.02783203125
F47.225040435791016
F2335.19189453125
tp522
sI1
(F643.0345458984375
F141.82586669921875
F2335.180419921875
tp523
sI2
(F643.0678100585938
F236.42420959472656
F2335.1689453125
tp524
sg6
(F643.0433959960938
F141.8250389099121
F2335.180419921875
tp525
ssS'TTaXRegionCSector22'
p526
(dp527
I0
(F642.914306640625
F-236.52163696289062
F2335.226318359375
tp528
sI1
(F642.9432373046875
F-141.9175262451172
F2335.21484375
tp529
sI2
(F642.9830322265625
F-47.33399963378906
F2335.203369140625
tp530
sg6
(F642.9468587239584
F-141.92438761393228
F2335.21484375
tp531
ssS'TTaXRegionASector20'
p532
(dp533
I0
(F-273.0259094238281
F330.85052490234375
F2335.322998046875
tp534
sI1
(F-273.04248046875
F425.45050048828125
F2335.330078125
tp535
sI2
(F-273.0570983886719
F520.04638671875
F2335.337158203125
tp536
sI3
(F-273.07861328125
F614.6546020507812
F2335.34423828125
tp537
sg6
(F-273.051025390625
F472.75050354003906
F2335.3336181640625
tp538
ssS'TTaXRegionCSector9'
p539
(dp540
I0
(F365.43658447265625
F-614.8764038085938
F2330.934326171875
tp541
sI1
(F365.4580383300781
F-520.269775390625
F2330.90478515625
tp542
sI2
(F365.4978332519531
F-425.673095703125
F2330.875244140625
tp543
sI3
(F365.53070068359375
F-331.06817626953125
F2330.845703125
tp544
sg6
(F365.4807891845703
F-472.97186279296875
F2330.8900146484375
tp545
ssS'TTbVRegionCSector7'
p546
(dp547
I0
(F363.0624694824219
F47.00396728515625
F2598.88037109375
tp548
sI1
(F354.8392028808594
F141.2417449951172
F2598.83984375
tp549
sI2
(F346.6041259765625
F235.4859161376953
F2598.799560546875
tp550
sg6
(F354.83526611328125
F141.2438761393229
F2598.8399251302085
tp551
ssS'TTaXRegionBSector13'
p552
(dp553
I0
(F86.9712142944336
F-614.7759399414062
F2335.869140625
tp554
sI1
(F86.97966003417969
F-520.167724609375
F2335.82470703125
tp555
sI2
(F86.9880599975586
F-425.5677490234375
F2335.780029296875
tp556
sI3
(F87.00045013427734
F-330.9677734375
F2335.7353515625
tp557
sg6
(F86.9848461151123
F-472.8697967529297
F2335.8023071289062
tp558
ssS'TTbVRegionCSector6'
p559
(dp560
I0
(F387.7522888183594
F-235.66732788085938
F2599.00146484375
tp561
sI1
(F379.5289306640625
F-141.43038940429688
F2598.9609375
tp562
sI2
(F371.2985534667969
F-47.18745040893555
F2598.920654296875
tp563
sg6
(F379.52659098307294
F-141.42838923136392
F2598.9610188802085
tp564
ssS'TTaXRegionCSector2'
p565
(dp566
I0
(F180.0388641357422
F-236.48316955566406
F2331.003173828125
tp567
sI1
(F180.04026794433594
F-141.87823486328125
F2330.961669921875
tp568
sI2
(F180.04446411132812
F-47.27248764038086
F2330.920166015625
tp569
sg6
(F180.04119873046875
F-141.8779640197754
F2330.961669921875
tp570
ssS'TTbXRegionCSector19'
p571
(dp572
I0
(F643.3349609375
F47.1884880065918
F2635.52099609375
tp573
sI1
(F643.3717041015625
F141.7901153564453
F2635.48828125
tp574
sI2
(F643.3850708007812
F236.38600158691406
F2635.45556640625
tp575
sg6
(F643.3639119466146
F141.78820164998373
F2635.48828125
tp576
ssS'TTbXRegionCSector18'
p577
(dp578
I0
(F643.3018798828125
F-236.56149291992188
F2635.61865234375
tp579
sI1
(F643.3150634765625
F-141.97055053710938
F2635.586181640625
tp580
sI2
(F643.3318481445312
F-47.37302780151367
F2635.553466796875
tp581
sg6
(F643.3162638346354
F-141.96835708618164
F2635.5861002604165
tp582
ssS'TTaXRegionBSector14'
p583
(dp584
I0
(F87.01406860351562
F-236.36448669433594
F2335.690673828125
tp585
sI1
(F87.01663208007812
F-141.76943969726562
F2335.64599609375
tp586
sg6
(F87.01535034179688
F-189.06696319580078
F2335.6683349609375
tp587
ssS'TTaXRegionCSector3'
p588
(dp589
I0
(F180.041015625
F47.27339172363281
F2330.878662109375
tp590
sI1
(F180.04002380371094
F141.8799591064453
F2330.837158203125
tp591
sI2
(F180.040771484375
F236.4750213623047
F2330.795654296875
tp592
sg6
(F180.0406036376953
F141.8761240641276
F2330.837158203125
tp593
ssS'TTbXRegionCSector13'
p594
(dp595
I0
(F551.0617065429688
F-615.0198974609375
F2640.237548828125
tp596
sI1
(F551.078125
F-520.40673828125
F2640.204345703125
tp597
sI2
(F551.0986328125
F-425.8100280761719
F2640.171142578125
tp598
sI3
(F551.1021728515625
F-331.21331787109375
F2640.137939453125
tp599
sg6
(F551.0851593017578
F-473.1124954223633
F2640.187744140625
tp600
ssS'TTbXRegionCSector12'
p601
(dp602
I0
(F458.60430908203125
F330.92315673828125
F2635.312744140625
tp603
sI1
(F458.615234375
F425.52069091796875
F2635.265869140625
tp604
sI2
(F458.63153076171875
F520.1239624023438
F2635.218994140625
tp605
sI3
(F458.6236572265625
F614.7222900390625
F2635.172119140625
tp606
sg6
(F458.6186828613281
F472.82252502441406
F2635.242431640625
tp607
ssS'TTbXRegionCSector11'
p608
(dp609
I0
(F458.5935974121094
F47.11414337158203
F2635.45361328125
tp610
sI1
(F458.5807189941406
F141.7165985107422
F2635.40673828125
tp611
sI2
(F458.5813903808594
F236.321533203125
F2635.35986328125
tp612
sg6
(F458.5852355957031
F141.71742502848306
F2635.40673828125
tp613
ssS'TTbXRegionCSector10'
p614
(dp615
I0
(F458.54302978515625
F-236.63169860839844
F2635.594482421875
tp616
sI1
(F458.5603942871094
F-142.03665161132812
F2635.54736328125
tp617
sI2
(F458.5752868652344
F-47.435020446777344
F2635.50048828125
tp618
sg6
(F458.5595703125
F-142.03445688883463
F2635.5474446614585
tp619
ssS'TTbXRegionCSector17'
p620
(dp621
I0
(F643.2344970703125
F-614.9696655273438
F2635.749267578125
tp622
sI1
(F643.2600708007812
F-520.3729858398438
F2635.716796875
tp623
sI2
(F643.2792358398438
F-425.76971435546875
F2635.68408203125
tp624
sI3
(F643.283935546875
F-331.1639404296875
F2635.6513671875
tp625
sg6
(F643.2644348144531
F-473.06907653808594
F2635.7003784179688
tp626
ssS'TTbXRegionCSector16'
p627
(dp628
I0
(F551.21435546875
F330.9415588378906
F2639.905517578125
tp629
sI1
(F551.232666015625
F425.54156494140625
F2639.872314453125
tp630
sI2
(F551.2623291015625
F520.1390991210938
F2639.839111328125
tp631
sI3
(F551.294189453125
F614.7456665039062
F2639.805908203125
tp632
sg6
(F551.2508850097656
F472.8419723510742
F2639.855712890625
tp633
ssS'TTbXRegionCSector15'
p634
(dp635
I0
(F551.2439575195312
F47.126766204833984
F2640.005126953125
tp636
sI1
(F551.15673828125
F141.74981689453125
F2639.971923828125
tp637
sI2
(F551.1785888671875
F236.34815979003906
F2639.938720703125
tp638
sg6
(F551.1930948893229
F141.74158096313477
F2639.971923828125
tp639
ssS'TTbXRegionCSector14'
p640
(dp641
I0
(F551.128662109375
F-236.6125030517578
F2640.104736328125
tp642
sI1
(F551.1459350585938
F-142.01251220703125
F2640.071533203125
tp643
sI2
(F551.1608276367188
F-47.414161682128906
F2640.038330078125
tp644
sg6
(F551.1451416015625
F-142.013058980306
F2640.071533203125
tp645
ssS'TTaURegionASector24'
p646
(dp647
I0
(F-151.91363525390625
F329.7318115234375
F2371.92041015625
tp648
sI1
(F-143.677978515625
F423.97015380859375
F2371.925048828125
tp649
sI2
(F-135.44094848632812
F518.2125244140625
F2371.929443359375
tp650
sI3
(F-127.2076416015625
F612.4601440429688
F2371.933837890625
tp651
sg6
(F-139.56005096435547
F471.0936584472656
F2371.9271850585938
tp652
ssS'TTbXRegionCSector3'
p653
(dp654
I0
(F272.99835205078125
F47.16969680786133
F2635.57666015625
tp655
sI1
(F273.00494384765625
F141.76556396484375
F2635.5146484375
tp656
sI2
(F273.0179748535156
F236.35484313964844
F2635.45263671875
tp657
sg6
(F273.00709025065106
F141.76336797078451
F2635.5146484375
tp658
ssS'TTaXRegionCSector1'
p659
(dp660
I0
(F180.03738403320312
F-614.88232421875
F2331.169189453125
tp661
sI1
(F180.03599548339844
F-520.2741088867188
F2331.127685546875
tp662
sI2
(F180.0399627685547
F-425.6757507324219
F2331.086181640625
tp663
sI3
(F180.0421142578125
F-331.0782165527344
F2331.044677734375
tp664
sg6
(F180.0388641357422
F-472.97760009765625
F2331.10693359375
tp665
ssS'TTaURegionASector20'
p666
(dp667
I0
(F-245.2030487060547
F329.7133483886719
F2367.436767578125
tp668
sI1
(F-236.96047973632812
F423.949462890625
F2367.441650390625
tp669
sI2
(F-228.71514892578125
F518.1935424804688
F2367.446533203125
tp670
sI3
(F-220.48562622070312
F612.438232421875
F2367.451171875
tp671
sg6
(F-232.8410758972168
F471.07364654541016
F2367.4440307617188
tp672
ssS'TTaURegionASector21'
p673
(dp674
I0
(F-234.2701873779297
F-612.632080078125
F2371.8759765625
tp675
sI1
(F-226.04000854492188
F-518.3899536132812
F2371.88037109375
tp676
sI2
(F-217.80148315429688
F-424.1444091796875
F2371.885009765625
tp677
sI3
(F-209.5640869140625
F-329.904541015625
F2371.889404296875
tp678
sg6
(F-221.91894149780273
F-471.2677459716797
F2371.8826904296875
tp679
ssS'TTaURegionASector22'
p680
(dp681
I0
(F-201.32955932617188
F-235.665283203125
F2371.893798828125
tp682
sI1
(F-193.08731079101562
F-141.42503356933594
F2371.898193359375
tp683
sI2
(F-184.8570098876953
F-47.1837272644043
F2371.902587890625
tp684
sg6
(F-193.09129333496094
F-141.42468134562174
F2371.898193359375
tp685
ssS'TTbXRegionCSector2'
p686
(dp687
I0
(F272.9836730957031
F-236.58847045898438
F2635.7626953125
tp688
sI1
(F272.9924621582031
F-141.9876708984375
F2635.70068359375
tp689
sI2
(F272.989013671875
F-47.38768768310547
F2635.638671875
tp690
sg6
(F272.98838297526044
F-141.98794301350912
F2635.70068359375
tp691
ssS'TTaXRegionCSector6'
p692
(dp693
I0
(F272.8654479980469
F-236.48648071289062
F2335.390625
tp694
sI1
(F272.8721923828125
F-141.8807373046875
F2335.351806640625
tp695
sI2
(F272.87969970703125
F-47.28238296508789
F2335.312744140625
tp696
sg6
(F272.87244669596356
F-141.88320032755533
F2335.3517252604165
tp697
ssS'TTbXRegionCSector1'
p698
(dp699
I0
(F272.9519958496094
F-614.9859008789062
F2636.010986328125
tp700
sI1
(F272.9579162597656
F-520.3801879882812
F2635.948974609375
tp701
sI2
(F272.9739074707031
F-425.7826843261719
F2635.886962890625
tp702
sI3
(F272.9717102050781
F-331.18597412109375
F2635.824951171875
tp703
sg6
(F272.96388244628906
F-473.0836868286133
F2635.91796875
tp704
ssS'TTaXRegionCSector7'
p705
(dp706
I0
(F272.8924560546875
F47.27748107910156
F2335.27392578125
tp707
sI1
(F272.9011535644531
F141.875
F2335.235107421875
tp708
sI2
(F272.90423583984375
F236.47499084472656
F2335.1962890625
tp709
sg6
(F272.89928181966144
F141.87582397460938
F2335.235107421875
tp710
ssS'TTbVRegionCSector5'
p711
(dp712
I0
(F420.6816101074219
F-612.6392211914062
F2599.1630859375
tp713
sI1
(F412.4471130371094
F-518.390869140625
F2599.12255859375
tp714
sI2
(F404.2127685546875
F-424.1548767089844
F2599.082275390625
tp715
sI3
(F395.9875183105469
F-329.9106750488281
F2599.041748046875
tp716
sg6
(F408.3322525024414
F-471.27391052246094
F2599.1024169921875
tp717
ssS'TTbVRegionCSector4'
p718
(dp719
I0
(F245.06802368164062
F329.76605224609375
F2603.224853515625
tp720
sI1
(F236.8310089111328
F424.0042724609375
F2603.16943359375
tp721
sI2
(F228.58790588378906
F518.2411499023438
F2603.1142578125
tp722
sI3
(F220.34825134277344
F612.4882202148438
F2603.058837890625
tp723
sg6
(F232.70879745483398
F471.1249237060547
F2603.141845703125
tp724
ssS'TTbVRegionASector19'
p725
(dp726
I0
(F-371.7626647949219
F46.90837860107422
F2598.888916015625
tp727
sI1
(F-380.031005859375
F141.14881896972656
F2598.876708984375
tp728
sI2
(F-388.2967529296875
F235.38702392578125
F2598.86474609375
tp729
sg6
(F-380.03014119466144
F141.148073832194
F2598.8767903645835
tp730
ssS'TTbVRegionASector18'
p731
(dp732
I0
(F-346.9665832519531
F-235.76107788085938
F2598.92529296875
tp733
sI1
(F-355.2313232421875
F-141.52279663085938
F2598.9130859375
tp734
sI2
(F-363.49755859375
F-47.287940979003906
F2598.90087890625
tp735
sg6
(F-355.23182169596356
F-141.52393849690756
F2598.9130859375
tp736
ssS'TTbVRegionCSector1'
p737
(dp738
I0
(F327.45751953125
F-612.5989379882812
F2603.7783203125
tp739
sI1
(F319.2232360839844
F-518.348876953125
F2603.722900390625
tp740
sI2
(F310.9845886230469
F-424.10833740234375
F2603.66748046875
tp741
sI3
(F302.7424621582031
F-329.87139892578125
F2603.6123046875
tp742
sg6
(F315.1019515991211
F-471.2318878173828
F2603.6952514648438
tp743
ssS'TTaXRegionCSector4'
p744
(dp745
I0
(F180.04452514648438
F331.0741882324219
F2330.75390625
tp746
sI1
(F180.05010986328125
F425.6741638183594
F2330.71240234375
tp747
sI2
(F180.0445098876953
F520.2791137695312
F2330.6708984375
tp748
sI3
(F180.04348754882812
F614.881591796875
F2330.62939453125
tp749
sg6
(F180.04565811157227
F472.9772644042969
F2330.691650390625
tp750
ssS'TTbVRegionCSector3'
p751
(dp752
I0
(F269.7886657714844
F47.04315948486328
F2603.390869140625
tp753
sI1
(F261.5450439453125
F141.2832794189453
F2603.33544921875
tp754
sI2
(F253.30628967285156
F235.5229949951172
F2603.2802734375
tp755
sg6
(F261.5466664632161
F141.28314463297525
F2603.3355305989585
tp756
ssS'TTbVRegionCSector2'
p757
(dp758
I0
(F294.494873046875
F-235.6316375732422
F2603.556884765625
tp759
sI1
(F286.2674255371094
F-141.38844299316406
F2603.50146484375
tp760
sI2
(F278.0187072753906
F-47.14960479736328
F2603.4462890625
tp761
sg6
(F286.2603352864583
F-141.3898951212565
F2603.5015462239585
tp762
ssS'TTbVRegionASector13'
p763
(dp764
I0
(F-407.0433349609375
F-612.6764526367188
F2603.456787109375
tp765
sI1
(F-415.30072021484375
F-518.4400024414062
F2603.454833984375
tp766
sI2
(F-423.5576477050781
F-424.2002258300781
F2603.452880859375
tp767
sI3
(F-431.8132019042969
F-329.95782470703125
F2603.450927734375
tp768
sg6
(F-419.42872619628906
F-471.3186264038086
F2603.453857421875
tp769
ssS'TTbVRegionASector12'
p770
(dp771
I0
(F-582.3068237304688
F329.63812255859375
F2599.047119140625
tp772
sI1
(F-590.57373046875
F423.87786865234375
F2599.04541015625
tp773
sI2
(F-598.837158203125
F518.1146240234375
F2599.04345703125
tp774
sI3
(F-607.0945434570312
F612.3593139648438
F2599.041748046875
tp775
sg6
(F-594.7030639648438
F470.9974822998047
F2599.04443359375
tp776
ssS'TTbVRegionASector11'
p777
(dp778
I0
(F-557.5136108398438
F46.92731857299805
F2599.052490234375
tp779
sI1
(F-565.773193359375
F141.16357421875
F2599.05078125
tp780
sI2
(F-574.0380249023438
F235.39772033691406
F2599.048828125
tp781
sg6
(F-565.7749430338541
F141.16287104288736
F2599.0506998697915
tp782
ssS'TTbVRegionASector10'
p783
(dp784
I0
(F-532.7225341796875
F-235.74505615234375
F2599.057861328125
tp785
sI1
(F-540.989501953125
F-141.5119171142578
F2599.05615234375
tp786
sI2
(F-549.25390625
F-47.268646240234375
F2599.05419921875
tp787
sg6
(F-540.9886474609375
F-141.50853983561197
F2599.0560709635415
tp788
ssS'TTbVRegionCSector9'
p789
(dp790
I0
(F513.70556640625
F-612.6297607421875
F2603.5068359375
tp791
sI1
(F505.49755859375
F-518.3873901367188
F2603.4755859375
tp792
sI2
(F497.2747497558594
F-424.1454162597656
F2603.4443359375
tp793
sI3
(F489.05419921875
F-329.9016418457031
F2603.4130859375
tp794
sg6
(F501.38301849365234
F-471.26605224609375
F2603.4599609375
tp795
ssS'TTbVRegionCSector8'
p796
(dp797
I0
(F338.37835693359375
F329.7267761230469
F2598.759033203125
tp798
sI1
(F330.14166259765625
F423.9666748046875
F2598.71875
tp799
sI2
(F321.9131774902344
F518.2089233398438
F2598.67822265625
tp800
sI3
(F313.6858825683594
F612.4595947265625
F2598.637939453125
tp801
sg6
(F326.02976989746094
F471.09049224853516
F2598.698486328125
tp802
ssS'TTbVRegionASector15'
p803
(dp804
I0
(F-464.84295654296875
F46.95426940917969
F2603.44287109375
tp805
sI1
(F-473.08868408203125
F141.1967010498047
F2603.44091796875
tp806
sI2
(F-481.34124755859375
F235.43934631347656
F2603.43896484375
tp807
sg6
(F-473.09096272786456
F141.19677225748697
F2603.44091796875
tp808
ssS'TTbVRegionASector16'
p809
(dp810
I0
(F-489.5987548828125
F329.6749572753906
F2603.43701171875
tp811
sI1
(F-497.85491943359375
F423.9131774902344
F2603.43505859375
tp812
sI2
(F-506.11572265625
F518.1534423828125
F2603.43310546875
tp813
sI3
(F-514.3778686523438
F612.39111328125
F2603.430908203125
tp814
sg6
(F-501.98681640625
F471.0331726074219
F2603.4340209960938
tp815
ssS'TTaXRegionBSector9'
p816
(dp817
I0
(F0.23631365597248077
F-84.79376983642578
F2322.97314453125
tp818
sg6
(F0.23631365597248077
F-84.79376983642578
F2322.97314453125
tp819
ssS'TTbXRegionCSector5'
p820
(dp821
I0
(F365.7466125488281
F-615.0787353515625
F2640.488525390625
tp822
sI1
(F365.7588195800781
F-520.47216796875
F2640.425048828125
tp823
sI2
(F365.7662658691406
F-425.873046875
F2640.361572265625
tp824
sI3
(F365.7709045410156
F-331.2730407714844
F2640.298095703125
tp825
sg6
(F365.7606506347656
F-473.1742477416992
F2640.393310546875
tp826
ssS'TTbVRegionASector14'
p827
(dp828
I0
(F-440.07147216796875
F-235.7140350341797
F2603.448974609375
tp829
sI1
(F-448.3362731933594
F-141.46749877929688
F2603.44677734375
tp830
sI2
(F-456.58135986328125
F-47.22748947143555
F2603.44482421875
tp831
sg6
(F-448.32970174153644
F-141.46967442830405
F2603.4468587239585
tp832
ssS'TTaXRegionCSector8'
p833
(dp834
I0
(F272.9173583984375
F331.0749816894531
F2335.157470703125
tp835
sI1
(F272.92547607421875
F425.6791076660156
F2335.118408203125
tp836
sI2
(F272.9451599121094
F520.276611328125
F2335.07958984375
tp837
sI3
(F272.9438781738281
F614.8782348632812
F2335.040771484375
tp838
sg6
(F272.93296813964844
F472.97723388671875
F2335.0990600585938
tp839
ssS'TTaURegionCSector13'
p840
(dp841
I0
(F406.2610168457031
F-612.6317138671875
F2367.6171875
tp842
sI1
(F414.5190124511719
F-518.3878784179688
F2367.58349609375
tp843
sI2
(F422.7651672363281
F-424.15045166015625
F2367.5498046875
tp844
sI3
(F431.018798828125
F-329.9103698730469
F2367.51611328125
tp845
sg6
(F418.64099884033203
F-471.27010345458984
F2367.566650390625
tp846
ssS'TTaURegionCSector12'
p847
(dp848
I0
(F395.94244384765625
F329.7823791503906
F2371.831787109375
tp849
sI1
(F404.19091796875
F424.0245666503906
F2371.803955078125
tp850
sI2
(F412.43487548828125
F518.2638549804688
F2371.7763671875
tp851
sI3
(F420.68267822265625
F612.5036010742188
F2371.748779296875
tp852
sg6
(F408.31272888183594
F471.1436004638672
F2371.7902221679688
tp853
ssS'TTbVRegionASector9'
p854
(dp855
I0
(F-499.66680908203125
F-612.705078125
F2599.065185546875
tp856
sI1
(F-507.9282531738281
F-518.4615478515625
F2599.063232421875
tp857
sI2
(F-516.195068359375
F-424.2275695800781
F2599.0615234375
tp858
sI3
(F-524.4567260742188
F-329.9857177734375
F2599.059814453125
tp859
sg6
(F-512.0617141723633
F-471.34497833251953
F2599.0624389648438
tp860
ssS'TTbVRegionASector8'
p861
(dp862
I0
(F-674.8892211914062
F329.63427734375
F2603.558837890625
tp863
sI1
(F-683.1490478515625
F423.8779296875
F2603.56298828125
tp864
sI2
(F-691.4171142578125
F518.11181640625
F2603.567138671875
tp865
sI3
(F-699.6787109375
F612.3569946289062
F2603.5712890625
tp866
sg6
(F-687.2835235595703
F470.99525451660156
F2603.5650634765625
tp867
ssS'TTaURegionCSector17'
p868
(dp869
I0
(F498.8606262207031
F-612.5523681640625
F2371.997802734375
tp870
sI1
(F507.1210632324219
F-518.3079223632812
F2371.976806640625
tp871
sI2
(F515.3724975585938
F-424.06927490234375
F2371.955810546875
tp872
sI3
(F523.6317138671875
F-329.8363037109375
F2371.9345703125
tp873
sg6
(F511.24647521972656
F-471.19146728515625
F2371.9662475585938
tp874
ssS'TTbXRegionBSector18'
p875
(dp876
I0
(F87.18305206298828
F-236.69747924804688
F2635.864990234375
tp877
sI1
(F87.18854522705078
F-142.0958709716797
F2635.781005859375
tp878
sg6
(F87.18579864501953
F-189.39667510986328
F2635.822998046875
tp879
ssS'TTaURegionCSector15'
p880
(dp881
I0
(F464.0285949707031
F47.00264358520508
F2367.38134765625
tp882
sI1
(F472.2702941894531
F141.2437744140625
F2367.34765625
tp883
sI2
(F480.5223083496094
F235.48150634765625
F2367.31396484375
tp884
sg6
(F472.2737325032552
F141.2426414489746
F2367.34765625
tp885
ssS'TTaURegionCSector14'
p886
(dp887
I0
(F439.2728271484375
F-235.6661834716797
F2367.482421875
tp888
sI1
(F447.5249328613281
F-141.43589782714844
F2367.44873046875
tp889
sI2
(F455.76934814453125
F-47.1999626159668
F2367.4150390625
tp890
sg6
(F447.5223693847656
F-141.43401463826498
F2367.44873046875
tp891
ssS'TTbVRegionASector3'
p892
(dp893
I0
(F-743.1851196289062
F47.07392501831055
F2599.150634765625
tp894
sI1
(F-751.4434814453125
F141.31565856933594
F2599.156982421875
tp895
sI2
(F-759.7021484375
F235.5491943359375
F2599.16357421875
tp896
sg6
(F-751.4435831705729
F141.31292597452799
F2599.1570638020835
tp897
ssS'TTbVRegionASector2'
p898
(dp899
I0
(F-718.436279296875
F-235.595947265625
F2599.13134765625
tp900
sI1
(F-726.679931640625
F-141.35829162597656
F2599.1376953125
tp901
sI2
(F-734.9292602539062
F-47.1186637878418
F2599.14404296875
tp902
sg6
(F-726.6818237304688
F-141.3576342264811
F2599.1376953125
tp903
ssS'TTbVRegionASector1'
p904
(dp905
I0
(F-685.4299926757812
F-612.560302734375
F2599.10546875
tp906
sI1
(F-693.6764526367188
F-518.3146362304688
F2599.112060546875
tp907
sI2
(F-701.931640625
F-424.07470703125
F2599.118408203125
tp908
sI3
(F-710.1828002929688
F-329.8343811035156
F2599.124755859375
tp909
sg6
(F-697.8052215576172
F-471.19600677490234
F2599.1151733398438
tp910
ssS'TTbXRegionBSector19'
p911
(dp912
I0
(F87.18443298339844
F-47.492618560791016
F2635.69677734375
tp913
sg6
(F87.18443298339844
F-47.492618560791016
F2635.69677734375
tp914
ssS'TTbVRegionASector7'
p915
(dp916
I0
(F-650.0953369140625
F46.915252685546875
F2603.54638671875
tp917
sI1
(F-658.3607177734375
F141.15431213378906
F2603.550537109375
tp918
sI2
(F-666.6279907226562
F235.39402770996094
F2603.5546875
tp919
sg6
(F-658.3613484700521
F141.15453084309897
F2603.550537109375
tp920
ssS'TTbVRegionASector6'
p921
(dp922
I0
(F-625.3059692382812
F-235.74156188964844
F2603.533935546875
tp923
sI1
(F-633.5723266601562
F-141.5092010498047
F2603.5380859375
tp924
sI2
(F-641.8385620117188
F-47.2760124206543
F2603.542236328125
tp925
sg6
(F-633.5722859700521
F-141.5089251200358
F2603.5380859375
tp926
ssS'TTbVRegionASector5'
p927
(dp928
I0
(F-592.2547607421875
F-612.701171875
F2603.517333984375
tp929
sI1
(F-600.5205078125
F-518.4580078125
F2603.521484375
tp930
sI2
(F-608.7885131835938
F-424.22332763671875
F2603.525634765625
tp931
sI3
(F-617.0565185546875
F-329.9820251464844
F2603.52978515625
tp932
sg6
(F-604.6550750732422
F-471.3411331176758
F2603.5235595703125
tp933
ssS'TTbVRegionASector4'
p934
(dp935
I0
(F-767.8732299804688
F329.8064880371094
F2599.169921875
tp936
sI1
(F-776.1497802734375
F424.0205383300781
F2599.17626953125
tp937
sI2
(F-784.4531860351562
F518.26318359375
F2599.182861328125
tp938
sI3
(F-792.6954956054688
F612.50341796875
F2599.189208984375
tp939
sg6
(F-780.2929229736328
F471.1484069824219
F2599.1795654296875
tp940
ssS'TTaURegionASector19'
p941
(dp942
I0
(F-269.92864990234375
F46.99745559692383
F2367.42236328125
tp943
sI1
(F-261.690185546875
F141.2347412109375
F2367.42724609375
tp944
sI2
(F-253.44749450683594
F235.47000122070312
F2367.431884765625
tp945
sg6
(F-261.68877665201825
F141.23406600952148
F2367.4271647135415
tp946
ssS'TTbXRegionBSector16'
p947
(dp948
I0
(F0.10626424849033356
F367.9141845703125
F2647.369384765625
tp949
sI1
(F-0.03662465512752533
F462.512451171875
F2647.369384765625
tp950
sI2
(F-0.16232024133205414
F557.1115112304688
F2647.369384765625
tp951
sI3
(F-0.2894343137741089
F651.7130737304688
F2647.369384765625
tp952
sg6
(F-0.0955287404358387
F509.81280517578125
F2647.369384765625
tp953
ssS'TTaXRegionASector23'
p954
(dp955
I0
(F-180.02528381347656
F47.05574035644531
F2330.72705078125
tp956
sI1
(F-180.0537567138672
F141.65245056152344
F2330.74609375
tp957
sI2
(F-180.06417846679688
F236.25738525390625
F2330.764892578125
tp958
sg6
(F-180.04773966471353
F141.65519205729166
F2330.7460123697915
tp959
ssS'TTbXRegionBSector17'
p960
(dp961
I0
(F87.17506408691406
F-615.1039428710938
F2636.201904296875
tp962
sI1
(F87.17931365966797
F-520.494873046875
F2636.11767578125
tp963
sI2
(F87.17440032958984
F-425.89080810546875
F2636.033447265625
tp964
sI3
(F87.17713928222656
F-331.296630859375
F2635.94921875
tp965
sg6
(F87.17647933959961
F-473.1965637207031
F2636.0755615234375
tp966
ssS'TTbXRegionASector24'
p967
(dp968
I0
(F-273.0538330078125
F331.050048828125
F2635.469482421875
tp969
sI1
(F-273.0497741699219
F425.65087890625
F2635.4765625
tp970
sI2
(F-273.0414733886719
F520.2484130859375
F2635.4833984375
tp971
sI3
(F-273.04705810546875
F614.85498046875
F2635.490478515625
tp972
sg6
(F-273.04803466796875
F472.9510803222656
F2635.47998046875
tp973
ssS'TTaURegionASector10'
p974
(dp975
I0
(F-480.38360595703125
F-235.79408264160156
F2367.60009765625
tp976
sI1
(F-472.1819152832031
F-141.5527801513672
F2367.60693359375
tp977
sI2
(F-463.9775085449219
F-47.3100471496582
F2367.61376953125
tp978
sg6
(F-472.18100992838544
F-141.55230331420898
F2367.60693359375
tp979
ssS'TTaURegionASector13'
p980
(dp981
I0
(F-420.5813903808594
F-612.6544799804688
F2371.98486328125
tp982
sI1
(F-412.36676025390625
F-518.4002685546875
F2371.982177734375
tp983
sI2
(F-404.1408386230469
F-424.1561279296875
F2371.979736328125
tp984
sI3
(F-395.9164123535156
F-329.9217529296875
F2371.977294921875
tp985
sg6
(F-408.25135040283203
F-471.2831573486328
F2371.9810180664062
tp986
ssS'TTaURegionASector12'
p987
(dp988
I0
(F-431.16436767578125
F329.61932373046875
F2367.64111328125
tp989
sI1
(F-422.9583435058594
F423.8644104003906
F2367.64794921875
tp990
sI2
(F-414.7455749511719
F518.1039428710938
F2367.65478515625
tp991
sI3
(F-406.5411376953125
F612.353271484375
F2367.66162109375
tp992
sg6
(F-418.85235595703125
F470.98523712158203
F2367.6513671875
tp993
ssS'TTbXRegionASector20'
p994
(dp995
I0
(F-365.9637145996094
F331.0019836425781
F2639.95166015625
tp996
sI1
(F-365.97894287109375
F425.5995178222656
F2639.964599609375
tp997
sI2
(F-365.9896240234375
F520.2077026367188
F2639.977294921875
tp998
sI3
(F-366.0156555175781
F614.8060913085938
F2639.990234375
tp999
sg6
(F-365.9869842529297
F472.90382385253906
F2639.970947265625
tp1000
ssS'TTbXRegionASector21'
p1001
(dp1002
I0
(F-273.1510925292969
F-614.91064453125
F2635.3994140625
tp1003
sI1
(F-273.1268615722656
F-520.30078125
F2635.406494140625
tp1004
sI2
(F-273.1181945800781
F-425.70159912109375
F2635.413330078125
tp1005
sI3
(F-273.1037292480469
F-331.09912109375
F2635.42041015625
tp1006
sg6
(F-273.1249694824219
F-473.00303649902344
F2635.409912109375
tp1007
ssS'TTbXRegionASector22'
p1008
(dp1009
I0
(F-273.108642578125
F-236.50241088867188
F2635.427490234375
tp1010
sI1
(F-273.10540771484375
F-141.8966522216797
F2635.434326171875
tp1011
sI2
(F-273.0960998535156
F-47.30323791503906
F2635.44140625
tp1012
sg6
(F-273.10338338216144
F-141.90076700846353
F2635.4344075520835
tp1013
ssS'TTbXRegionASector23'
p1014
(dp1015
I0
(F-273.0890197753906
F47.247581481933594
F2635.448486328125
tp1016
sI1
(F-273.08258056640625
F141.8500518798828
F2635.455322265625
tp1017
sI2
(F-273.0606689453125
F236.44593811035156
F2635.46240234375
tp1018
sg6
(F-273.0774230957031
F141.8478571573893
F2635.4554036458335
tp1019
ssS'TTbXRegionASector11'
p1020
(dp1021
I0
(F-551.1408081054688
F47.15153884887695
F2640.19287109375
tp1022
sI1
(F-551.173828125
F141.75234985351562
F2640.19580078125
tp1023
sI2
(F-551.1828002929688
F236.34906005859375
F2640.198486328125
tp1024
sg6
(F-551.1658121744791
F141.75098292032877
F2640.1957194010415
tp1025
ssS'TTbXRegionASector10'
p1026
(dp1027
I0
(F-551.069580078125
F-236.60009765625
F2640.184814453125
tp1028
sI1
(F-551.0957641601562
F-142.00421142578125
F2640.1875
tp1029
sI2
(F-551.1133422851562
F-47.40586471557617
F2640.190185546875
tp1030
sg6
(F-551.0928955078125
F-142.00339126586914
F2640.1875
tp1031
ssS'TTbXRegionASector13'
p1032
(dp1033
I0
(F-458.6251220703125
F-615.0018920898438
F2635.64111328125
tp1034
sI1
(F-458.6338806152344
F-520.4010620117188
F2635.63818359375
tp1035
sI2
(F-458.6539001464844
F-425.79693603515625
F2635.635009765625
tp1036
sI3
(F-458.6738586425781
F-331.2010803222656
F2635.6318359375
tp1037
sg6
(F-458.64669036865234
F-473.1002426147461
F2635.6365356445312
tp1038
ssS'TTbXRegionASector12'
p1039
(dp1040
I0
(F-551.2153930664062
F330.9515380859375
F2640.201171875
tp1041
sI1
(F-551.2418212890625
F425.5506896972656
F2640.203857421875
tp1042
sI2
(F-551.27880859375
F520.1473999023438
F2640.206787109375
tp1043
sI3
(F-551.2964477539062
F614.7581176757812
F2640.20947265625
tp1044
sg6
(F-551.2581176757812
F472.85193634033203
F2640.205322265625
tp1045
ssS'TTbXRegionASector15'
p1046
(dp1047
I0
(F-458.7645568847656
F47.14974594116211
F2635.619384765625
tp1048
sI1
(F-458.7637634277344
F141.75303649902344
F2635.6162109375
tp1049
sI2
(F-458.7777404785156
F236.35304260253906
F2635.613037109375
tp1050
sg6
(F-458.76868693033856
F141.7519416809082
F2635.6162109375
tp1051
ssS'TTbXRegionASector14'
p1052
(dp1053
I0
(F-458.7010803222656
F-236.59365844726562
F2635.628662109375
tp1054
sI1
(F-458.7161865234375
F-142.00271606445312
F2635.625732421875
tp1055
sI2
(F-458.7323913574219
F-47.3994255065918
F2635.62255859375
tp1056
sg6
(F-458.716552734375
F-141.99860000610352
F2635.6256510416665
tp1057
ssS'TTbXRegionASector17'
p1058
(dp1059
I0
(F-365.861328125
F-614.947998046875
F2639.822998046875
tp1060
sI1
(F-365.86517333984375
F-520.3488159179688
F2639.8359375
tp1061
sI2
(F-365.8774108886719
F-425.7471923828125
F2639.8486328125
tp1062
sI3
(F-365.8912353515625
F-331.1521301269531
F2639.861572265625
tp1063
sg6
(F-365.87378692626953
F-473.04903411865234
F2639.84228515625
tp1064
ssS'TTbXRegionASector16'
p1065
(dp1066
I0
(F-458.8009033203125
F330.95220947265625
F2635.610107421875
tp1067
sI1
(F-458.8330993652344
F425.5513916015625
F2635.60693359375
tp1068
sI2
(F-458.85064697265625
F520.14892578125
F2635.603759765625
tp1069
sI3
(F-458.86627197265625
F614.7546997070312
F2635.6005859375
tp1070
sg6
(F-458.83773040771484
F472.851806640625
F2635.6053466796875
tp1071
ssS'TTbXRegionASector19'
p1072
(dp1073
I0
(F-365.9366455078125
F47.20691680908203
F2639.9130859375
tp1074
sI1
(F-365.95306396484375
F141.80361938476562
F2639.92578125
tp1075
sI2
(F-365.9601135253906
F236.40609741210938
F2639.938720703125
tp1076
sg6
(F-365.94994099934894
F141.805544535319
F2639.9258626302085
tp1077
ssS'TTbXRegionASector18'
p1078
(dp1079
I0
(F-365.89910888671875
F-236.5447235107422
F2639.87451171875
tp1080
sI1
(F-365.9154968261719
F-141.95213317871094
F2639.88720703125
tp1081
sI2
(F-365.9223327636719
F-47.35295486450195
F2639.900146484375
tp1082
sg6
(F-365.9123128255208
F-141.9499371846517
F2639.8872884114585
tp1083
ssS'TTaURegionASector7'
p1084
(dp1085
I0
(F-548.5015869140625
F46.91536331176758
F2372.06591796875
tp1086
sI1
(F-540.2807006835938
F141.15582275390625
F2372.0810546875
tp1087
sI2
(F-532.0546264648438
F235.4008026123047
F2372.09619140625
tp1088
sg6
(F-540.2789713541666
F141.15732955932617
F2372.0810546875
tp1089
ssS'TTaURegionASector6'
p1090
(dp1091
I0
(F-573.1451416015625
F-235.755859375
F2372.0205078125
tp1092
sI1
(F-564.92626953125
F-141.52182006835938
F2372.03564453125
tp1093
sI2
(F-556.7112426757812
F-47.27506637573242
F2372.05078125
tp1094
sg6
(F-564.9275512695312
F-141.51758193969727
F2372.03564453125
tp1095
ssS'TTaURegionASector1'
p1096
(dp1097
I0
(F-698.90234375
F-612.770751953125
F2367.601318359375
tp1098
sI1
(F-690.6541137695312
F-518.5384521484375
F2367.60986328125
tp1099
sI2
(F-682.4182739257812
F-424.295166015625
F2367.618408203125
tp1100
sI3
(F-674.1773071289062
F-330.0531311035156
F2367.626953125
tp1101
sg6
(F-686.5380096435547
F-471.4143753051758
F2367.6141357421875
tp1102
ssS'TTaXRegionBSector10'
p1103
(dp1104
I0
(F0.30790865421295166
F84.2930908203125
F2322.961181640625
tp1105
sg6
(F0.30790865421295166
F84.2930908203125
F2322.961181640625
tp1106
ssS'TTaURegionASector3'
p1107
(dp1108
I0
(F-641.2090454101562
F46.86518478393555
F2367.6611328125
tp1109
sI1
(F-632.9540405273438
F141.1051483154297
F2367.66943359375
tp1110
sI2
(F-624.7144775390625
F235.34315490722656
F2367.677978515625
tp1111
sg6
(F-632.9591878255209
F141.10449600219727
F2367.6695149739585
tp1112
ssS'TTaURegionASector2'
p1113
(dp1114
I0
(F-665.933349609375
F-235.8047637939453
F2367.635498046875
tp1115
sI1
(F-657.6701049804688
F-141.56716918945312
F2367.64404296875
tp1116
sI2
(F-649.4450073242188
F-47.32460021972656
F2367.652587890625
tp1117
sg6
(F-657.6828206380209
F-141.56551106770834
F2367.64404296875
tp1118
ssS'TTaXRegionBSector7'
p1119
(dp1120
I0
(F-0.4598108232021332
F-652.39990234375
F2322.97314453125
tp1121
sI1
(F-0.34435632824897766
F-557.7901000976562
F2322.97314453125
tp1122
sI2
(F-0.22399607300758362
F-463.1926574707031
F2322.97314453125
tp1123
sI3
(F-0.10602322220802307
F-368.59356689453125
F2322.97314453125
tp1124
sg6
(F-0.2835466116666794
F-510.49405670166016
F2322.97314453125
tp1125
ssS'TTaXRegionBSector6'
p1126
(dp1127
I0
(F-87.24954223632812
F330.9393310546875
F2335.18115234375
tp1128
sI1
(F-87.23579406738281
F425.5409851074219
F2335.1962890625
tp1129
sI2
(F-87.22227478027344
F520.1393432617188
F2335.211669921875
tp1130
sI3
(F-87.21131134033203
F614.7442626953125
F2335.226806640625
tp1131
sg6
(F-87.2297306060791
F472.84098052978516
F2335.2039794921875
tp1132
ssS'TTbXRegionASector5'
p1133
(dp1134
I0
(F-643.5919189453125
F-615.0521240234375
F2635.786376953125
tp1135
sI1
(F-643.6008911132812
F-520.4439086914062
F2635.783935546875
tp1136
sI2
(F-643.617431640625
F-425.84637451171875
F2635.781494140625
tp1137
sI3
(F-643.62890625
F-331.2447204589844
F2635.779296875
tp1138
sg6
(F-643.6097869873047
F-473.1467819213867
F2635.7827758789062
tp1139
ssS'TTbXRegionASector4'
p1140
(dp1141
I0
(F-735.9424438476562
F330.98822021484375
F2640.109619140625
tp1142
sI1
(F-735.9617309570312
F425.5849304199219
F2640.103515625
tp1143
sI2
(F-735.9805908203125
F520.1873779296875
F2640.09765625
tp1144
sI3
(F-735.9987182617188
F614.7931518554688
F2640.091552734375
tp1145
sg6
(F-735.9708709716797
F472.88842010498047
F2640.1005859375
tp1146
ssS'TTbXRegionASector7'
p1147
(dp1148
I0
(F-643.698974609375
F47.10773849487305
F2635.769775390625
tp1149
sI1
(F-643.7083129882812
F141.7061004638672
F2635.767333984375
tp1150
sI2
(F-643.7151489257812
F236.29786682128906
F2635.76513671875
tp1151
sg6
(F-643.7074788411459
F141.70390192667642
F2635.7674153645835
tp1152
ssS'TTbXRegionASector6'
p1153
(dp1154
I0
(F-643.6556396484375
F-236.64390563964844
F2635.77685546875
tp1155
sI1
(F-643.6643676757812
F-142.0471954345703
F2635.7744140625
tp1156
sI2
(F-643.6778564453125
F-47.44554901123047
F2635.772216796875
tp1157
sg6
(F-643.6659545898438
F-142.04555002848306
F2635.7744954427085
tp1158
ssS'TTbXRegionASector1'
p1159
(dp1160
I0
(F-735.7600708007812
F-614.9666748046875
F2640.169189453125
tp1161
sI1
(F-735.7757568359375
F-520.3593139648438
F2640.1630859375
tp1162
sI2
(F-735.7891845703125
F-425.763427734375
F2640.1572265625
tp1163
sI3
(F-735.82080078125
F-331.1683654785156
F2640.151123046875
tp1164
sg6
(F-735.7864532470703
F-473.06444549560547
F2640.16015625
tp1165
ssS'TTbXRegionASector3'
p1166
(dp1167
I0
(F-735.8903198242188
F47.19150924682617
F2640.12744140625
tp1168
sI1
(F-735.9051513671875
F141.78985595703125
F2640.121337890625
tp1169
sI2
(F-735.9202270507812
F236.38739013671875
F2640.115478515625
tp1170
sg6
(F-735.9052327473959
F141.7895851135254
F2640.1214192708335
tp1171
ssS'TTbXRegionASector2'
p1172
(dp1173
I0
(F-735.8253173828125
F-236.56423950195312
F2640.145263671875
tp1174
sI1
(F-735.8507690429688
F-141.96424865722656
F2640.139404296875
tp1175
sI2
(F-735.8714599609375
F-47.360958099365234
F2640.13330078125
tp1176
sg6
(F-735.8491821289062
F-141.9631487528483
F2640.1393229166665
tp1177
ssS'TTbXRegionASector9'
p1178
(dp1179
I0
(F-550.9796142578125
F-614.9951782226562
F2640.173828125
tp1180
sI1
(F-550.9905395507812
F-520.3984375
F2640.176513671875
tp1181
sI2
(F-551.015380859375
F-425.8009033203125
F2640.17919921875
tp1182
sI3
(F-551.0443725585938
F-331.2001037597656
F2640.181884765625
tp1183
sg6
(F-551.0074768066406
F-473.0986557006836
F2640.1778564453125
tp1184
ssS'TTbXRegionASector8'
p1185
(dp1186
I0
(F-643.7418823242188
F330.898681640625
F2635.7626953125
tp1187
sI1
(F-643.7673950195312
F425.5003356933594
F2635.76025390625
tp1188
sI2
(F-643.7725219726562
F520.1036376953125
F2635.758056640625
tp1189
sI3
(F-643.7661743164062
F614.6624755859375
F2635.755615234375
tp1190
sg6
(F-643.7619934082031
F472.7912826538086
F2635.7591552734375
tp1191
ssS'TTaURegionCSector19'
p1192
(dp1193
I0
(F556.6468505859375
F47.0754280090332
F2371.850341796875
tp1194
sI1
(F564.9017944335938
F141.31704711914062
F2371.8291015625
tp1195
sI2
(F573.1531372070312
F235.55650329589844
F2371.80810546875
tp1196
sg6
(F564.9005940755209
F141.31632614135742
F2371.8291829427085
tp1197
ssS'TTaURegionBSector17'
p1198
(dp1199
I0
(F99.7615737915039
F141.32626342773438
F2367.508056640625
tp1200
sI1
(F108.01557922363281
F235.56134033203125
F2367.45849609375
tp1201
sg6
(F103.88857650756836
F188.4438018798828
F2367.4832763671875
tp1202
ssS'TTaURegionCSector11'
p1203
(dp1204
I0
(F371.2060852050781
F47.06826400756836
F2371.91455078125
tp1205
sI1
(F379.439208984375
F141.30105590820312
F2371.886962890625
tp1206
sI2
(F387.6760559082031
F235.54177856445312
F2371.859375
tp1207
sg6
(F379.44045003255206
F141.3036994934082
F2371.886962890625
tp1208
ssS'TTaURegionCSector10'
p1209
(dp1210
I0
(F346.4518127441406
F-235.5982208251953
F2371.997314453125
tp1211
sI1
(F354.7059631347656
F-141.3614959716797
F2371.9697265625
tp1212
sI2
(F362.9585266113281
F-47.12050247192383
F2371.942138671875
tp1213
sg6
(F354.70543416341144
F-141.3600730895996
F2371.9697265625
tp1214
ssS'TTaURegionCSector16'
p1215
(dp1216
I0
(F488.7745666503906
F329.71759033203125
F2367.2802734375
tp1217
sI1
(F497.03155517578125
F423.95489501953125
F2367.24658203125
tp1218
sI2
(F505.2828063964844
F518.1976318359375
F2367.212890625
tp1219
sI3
(F513.5339965820312
F612.4412231445312
F2367.17919921875
tp1220
sg6
(F501.1557312011719
F471.0778350830078
F2367.229736328125
tp1221
ssS'TTbXRegionBSector26'
p1222
(dp1223
I0
(F179.98861694335938
F330.85687255859375
F2639.912109375
tp1224
sI1
(F179.9773406982422
F425.4593505859375
F2639.85498046875
tp1225
sI2
(F179.98487854003906
F520.0609741210938
F2639.798095703125
tp1226
sI3
(F179.98240661621094
F614.66259765625
F2639.7412109375
tp1227
sg6
(F179.9833106994629
F472.75994873046875
F2639.8265991210938
tp1228
ssS'TTbXRegionBSector25'
p1229
(dp1230
I0
(F180.00633239746094
F47.06187438964844
F2640.082763671875
tp1231
sI1
(F180.0032958984375
F141.66104125976562
F2640.02587890625
tp1232
sI2
(F180.00526428222656
F236.25607299804688
F2639.968994140625
tp1233
sg6
(F180.00496419270834
F141.65966288248697
F2640.02587890625
tp1234
ssS'TTbXRegionBSector24'
p1235
(dp1236
I0
(F180.0167236328125
F-236.69300842285156
F2640.253662109375
tp1237
sI1
(F180.0185089111328
F-142.09878540039062
F2640.19677734375
tp1238
sI2
(F180.01327514648438
F-47.500450134277344
F2640.139892578125
tp1239
sg6
(F180.01616923014322
F-142.0974146525065
F2640.19677734375
tp1240
ssS'TTbXRegionBSector23'
p1241
(dp1242
I0
(F180.03936767578125
F-615.0962524414062
F2640.4814453125
tp1243
sI1
(F180.03749084472656
F-520.4921264648438
F2640.424560546875
tp1244
sI2
(F180.03443908691406
F-425.8929748535156
F2640.36767578125
tp1245
sI3
(F180.027587890625
F-331.2929992675781
F2640.310546875
tp1246
sg6
(F180.03472137451172
F-473.19358825683594
F2640.3960571289062
tp1247
ssS'TTbXRegionBSector22'
p1248
(dp1249
I0
(F87.19630432128906
F330.85064697265625
F2635.35986328125
tp1250
sI1
(F87.19401550292969
F425.448974609375
F2635.27587890625
tp1251
sI2
(F87.19970703125
F520.0513916015625
F2635.191650390625
tp1252
sI3
(F87.2023696899414
F614.657958984375
F2635.107421875
tp1253
sg6
(F87.19809913635254
F472.7522430419922
F2635.2337036132812
tp1254
ssS'TTbXRegionBSector21'
p1255
(dp1256
I0
(F87.19247436523438
F141.65237426757812
F2635.5283203125
tp1257
sI1
(F87.19902801513672
F236.24574279785156
F2635.444091796875
tp1258
sg6
(F87.19575119018555
F188.94905853271484
F2635.4862060546875
tp1259
ssS'TTbXRegionBSector20'
p1260
(dp1261
I0
(F87.18537139892578
F47.052406311035156
F2635.612548828125
tp1262
sg6
(F87.18537139892578
F47.052406311035156
F2635.612548828125
tp1263
ssS'TTaURegionBSector14'
p1264
(dp1265
I0
(F66.77986145019531
F-235.5875244140625
F2367.706787109375
tp1266
sI1
(F75.01768493652344
F-141.34938049316406
F2367.656982421875
tp1267
sg6
(F70.89877319335938
F-188.46845245361328
F2367.681884765625
tp1268
ssS'TTaURegionASector16'
p1269
(dp1270
I0
(F-338.381591796875
F329.7247314453125
F2371.959228515625
tp1271
sI1
(F-330.1529541015625
F423.96368408203125
F2371.956787109375
tp1272
sI2
(F-321.945068359375
F518.2102661132812
F2371.9541015625
tp1273
sI3
(F-313.724365234375
F612.4564819335938
F2371.95166015625
tp1274
sg6
(F-326.0509948730469
F471.0887908935547
F2371.9554443359375
tp1275
ssS'TTbXRegionCSector22'
p1276
(dp1277
I0
(F735.4027709960938
F-236.5331268310547
F2640.028564453125
tp1278
sI1
(F735.466796875
F-141.9323272705078
F2640.01220703125
tp1279
sI2
(F735.5296630859375
F-47.33234786987305
F2639.995849609375
tp1280
sg6
(F735.4664103190104
F-141.93260065714517
F2640.01220703125
tp1281
ssS'TTbXRegionCSector23'
p1282
(dp1283
I0
(F735.5885009765625
F47.221744537353516
F2639.9794921875
tp1284
sI1
(F735.6549682617188
F141.82418823242188
F2639.963134765625
tp1285
sI2
(F735.728271484375
F236.42169189453125
F2639.94677734375
tp1286
sg6
(F735.6572469075521
F141.8225415547689
F2639.963134765625
tp1287
ssS'TTbXRegionCSector20'
p1288
(dp1289
I0
(F643.3978271484375
F330.9876403808594
F2635.4228515625
tp1290
sI1
(F643.406982421875
F425.58270263671875
F2635.390380859375
tp1291
sI2
(F643.4147338867188
F520.184326171875
F2635.357666015625
tp1292
sI3
(F643.4422607421875
F614.7933959960938
F2635.324951171875
tp1293
sg6
(F643.4154510498047
F472.8870162963867
F2635.3739624023438
tp1294
ssS'TTbXRegionCSector21'
p1295
(dp1296
I0
(F735.1397094726562
F-614.9354858398438
F2640.093994140625
tp1297
sI1
(F735.2157592773438
F-520.334716796875
F2640.07763671875
tp1298
sI2
(F735.2742309570312
F-425.7363586425781
F2640.061279296875
tp1299
sI3
(F735.3408813476562
F-331.13311767578125
F2640.044921875
tp1300
sg6
(F735.2426452636719
F-473.03491973876953
F2640.0694580078125
tp1301
ssS'TTbXRegionBSector8'
p1302
(dp1303
I0
(F-87.32210540771484
F47.29869079589844
F2635.15185546875
tp1304
sg6
(F-87.32210540771484
F47.29869079589844
F2635.15185546875
tp1305
ssS'TTbXRegionBSector9'
p1306
(dp1307
I0
(F-87.31055450439453
F141.90609741210938
F2635.17626953125
tp1308
sI1
(F-87.29753875732422
F236.50279235839844
F2635.200439453125
tp1309
sg6
(F-87.30404663085938
F189.2044448852539
F2635.1883544921875
tp1310
ssS'TTbXRegionCSector24'
p1311
(dp1312
I0
(F735.7945556640625
F331.0191955566406
F2639.930419921875
tp1313
sI1
(F735.8538208007812
F425.61669921875
F2639.9140625
tp1314
sI2
(F735.9129028320312
F520.21337890625
F2639.897705078125
tp1315
sI3
(F735.9697265625
F614.8215942382812
F2639.881103515625
tp1316
sg6
(F735.8827514648438
F472.91771697998047
F2639.9058227539062
tp1317
ssS'TTaXRegionCSector5'
p1318
(dp1319
I0
(F272.82666015625
F-614.8848266601562
F2335.546142578125
tp1320
sI1
(F272.83441162109375
F-520.2749633789062
F2335.50732421875
tp1321
sI2
(F272.84552001953125
F-425.6749572753906
F2335.46826171875
tp1322
sI3
(F272.8551940917969
F-331.0774230957031
F2335.429443359375
tp1323
sg6
(F272.84044647216797
F-472.97804260253906
F2335.48779296875
tp1324
ssS'TTbXRegionBSector4'
p1325
(dp1326
I0
(F-180.14747619628906
F331.09967041015625
F2639.834716796875
tp1327
sI1
(F-180.13836669921875
F425.6988525390625
F2639.837158203125
tp1328
sI2
(F-180.1350555419922
F520.298828125
F2639.83984375
tp1329
sI3
(F-180.1302032470703
F614.9095458984375
F2639.842529296875
tp1330
sg6
(F-180.13777542114258
F473.00172424316406
F2639.8385620117188
tp1331
ssS'TTbXRegionBSector5'
p1332
(dp1333
I0
(F-87.4250717163086
F-614.8529052734375
F2634.982421875
tp1334
sI1
(F-87.4071044921875
F-520.2479858398438
F2635.006591796875
tp1335
sI2
(F-87.4145278930664
F-425.64471435546875
F2635.031005859375
tp1336
sI3
(F-87.39289855957031
F-331.0496520996094
F2635.05517578125
tp1337
sg6
(F-87.4099006652832
F-472.94881439208984
F2635.018798828125
tp1338
ssS'TTbXRegionBSector6'
p1339
(dp1340
I0
(F-87.37088012695312
F-236.45294189453125
F2635.079345703125
tp1341
sI1
(F-87.35171508789062
F-141.84718322753906
F2635.103515625
tp1342
sg6
(F-87.36129760742188
F-189.15006256103516
F2635.0914306640625
tp1343
ssS'TTbXRegionBSector7'
p1344
(dp1345
I0
(F-87.33989715576172
F-47.251304626464844
F2635.127685546875
tp1346
sg6
(F-87.33989715576172
F-47.251304626464844
F2635.127685546875
tp1347
ssS'TTbXRegionBSector1'
p1348
(dp1349
I0
(F-180.19418334960938
F-614.8486938476562
F2639.80810546875
tp1350
sI1
(F-180.19308471679688
F-520.245361328125
F2639.810791015625
tp1351
sI2
(F-180.191162109375
F-425.64703369140625
F2639.8134765625
tp1352
sI3
(F-180.18624877929688
F-331.0486755371094
F2639.816162109375
tp1353
sg6
(F-180.19116973876953
F-472.9474411010742
F2639.8121337890625
tp1354
ssS'TTbXRegionBSector2'
p1355
(dp1356
I0
(F-180.17832946777344
F-236.45033264160156
F2639.818603515625
tp1357
sI1
(F-180.17062377929688
F-141.8486785888672
F2639.8212890625
tp1358
sI2
(F-180.16209411621094
F-47.25197219848633
F2639.823974609375
tp1359
sg6
(F-180.17034912109375
F-141.8503278096517
F2639.8212890625
tp1360
ssS'TTbXRegionBSector3'
p1361
(dp1362
I0
(F-180.17083740234375
F47.30625534057617
F2639.82666015625
tp1363
sI1
(F-180.1431121826172
F141.90379333496094
F2639.829345703125
tp1364
sI2
(F-180.1511993408203
F236.50213623046875
F2639.83203125
tp1365
sg6
(F-180.1550496419271
F141.9040616353353
F2639.829345703125
tp1366
ssS'TTbXRegionCSector6'
p1367
(dp1368
I0
(F365.7685546875
F-236.67308044433594
F2640.234619140625
tp1369
sI1
(F365.77581787109375
F-142.07473754882812
F2640.171142578125
tp1370
sI2
(F365.77825927734375
F-47.475589752197266
F2640.107666015625
tp1371
sg6
(F365.7742106119792
F-142.07446924845377
F2640.171142578125
tp1372
ssS'TTaURegionCSector18'
p1373
(dp1374
I0
(F531.8843994140625
F-235.59283447265625
F2371.91357421875
tp1375
sI1
(F540.1390991210938
F-141.3561553955078
F2371.892333984375
tp1376
sI2
(F548.39501953125
F-47.114620208740234
F2371.871337890625
tp1377
sg6
(F540.1395060221354
F-141.35453669230142
F2371.8924153645835
tp1378
ssS'TTaXRegionBSector18'
p1379
(dp1380
I0
(F87.05899810791016
F331.1788635253906
F2335.4228515625
tp1381
sI1
(F87.0707778930664
F425.7772216796875
F2335.378173828125
tp1382
sI2
(F87.09397888183594
F520.3779907226562
F2335.33349609375
tp1383
sI3
(F87.09062194824219
F614.9854125976562
F2335.288818359375
tp1384
sg6
(F87.07859420776367
F473.07987213134766
F2335.3558349609375
tp1385
ssS'TTaXRegionBSector2'
p1386
(dp1387
I0
(F-87.31671905517578
F-236.6090087890625
F2335.08984375
tp1388
sI1
(F-87.3017807006836
F-142.00819396972656
F2335.10498046875
tp1389
sg6
(F-87.30924987792969
F-189.30860137939453
F2335.097412109375
tp1390
ssS'TTbVRegionASector22'
p1391
(dp1392
I0
(F-253.51138305664062
F-235.655029296875
F2603.390625
tp1393
sI1
(F-261.75128173828125
F-141.418701171875
F2603.393310546875
tp1394
sI2
(F-269.99603271484375
F-47.18196487426758
F2603.396240234375
tp1395
sg6
(F-261.7528991699219
F-141.4185651143392
F2603.3933919270835
tp1396
ssS'TTbVRegionASector23'
p1397
(dp1398
I0
(F-278.2309265136719
F47.00873565673828
F2603.39892578125
tp1399
sI1
(F-286.4733581542969
F141.2547607421875
F2603.401611328125
tp1400
sI2
(F-294.7168273925781
F235.4866485595703
F2603.404296875
tp1401
sg6
(F-286.4737040201823
F141.2500483194987
F2603.401611328125
tp1402
ssS'TTbVRegionASector20'
p1403
(dp1404
I0
(F-396.5686950683594
F329.6230163574219
F2598.8525390625
tp1405
sI1
(F-404.83355712890625
F423.8604736328125
F2598.84033203125
tp1406
sI2
(F-413.10736083984375
F518.0971069335938
F2598.828369140625
tp1407
sI3
(F-421.3700256347656
F612.343017578125
F2598.816162109375
tp1408
sg6
(F-408.96990966796875
F470.9809036254883
F2598.8343505859375
tp1409
ssS'TTbVRegionASector21'
p1410
(dp1411
I0
(F-220.5376739501953
F-612.6246948242188
F2603.379638671875
tp1412
sI1
(F-228.77772521972656
F-518.3759765625
F2603.382568359375
tp1413
sI2
(F-237.02322387695312
F-424.1376953125
F2603.38525390625
tp1414
sI3
(F-245.26075744628906
F-329.898681640625
F2603.387939453125
tp1415
sg6
(F-232.89984512329102
F-471.25926208496094
F2603.3838500976562
tp1416
ssS'TTbVRegionASector24'
p1417
(dp1418
I0
(F-302.9627380371094
F329.72906494140625
F2603.4072265625
tp1419
sI1
(F-311.2134704589844
F423.97186279296875
F2603.409912109375
tp1420
sI2
(F-319.4544982910156
F518.2138671875
F2603.41259765625
tp1421
sI3
(F-327.68994140625
F612.4605102539062
F2603.415283203125
tp1422
sg6
(F-315.33016204833984
F471.0938262939453
F2603.4112548828125
tp1423
ssS'TTbVRegionCSector24'
p1424
(dp1425
I0
(F709.7899169921875
F329.7521667480469
F2598.693359375
tp1426
sI1
(F701.5899047851562
F424.024169921875
F2598.6689453125
tp1427
sI2
(F693.4382934570312
F518.23681640625
F2598.64453125
tp1428
sI3
(F685.2113647460938
F612.4932861328125
F2598.620361328125
tp1429
sg6
(F697.5073699951172
F471.1266098022461
F2598.6567993164062
tp1430
ssS'TTaXRegionCSector14'
p1431
(dp1432
I0
(F457.9440612792969
F-236.6165313720703
F2335.244384765625
tp1433
sI1
(F457.9541320800781
F-142.0189971923828
F2335.2216796875
tp1434
sI2
(F457.9734191894531
F-47.41407012939453
F2335.198974609375
tp1435
sg6
(F457.9572041829427
F-142.01653289794922
F2335.2216796875
tp1436
ssS'TTbVRegionCSector20'
p1437
(dp1438
I0
(F617.0172119140625
F329.80792236328125
F2603.19677734375
tp1439
sI1
(F608.8079833984375
F424.0510559082031
F2603.176513671875
tp1440
sI2
(F600.591552734375
F518.2919311523438
F2603.156005859375
tp1441
sI3
(F592.38134765625
F612.5415649414062
F2603.1357421875
tp1442
sg6
(F604.6995239257812
F471.1731185913086
F2603.166259765625
tp1443
ssS'TTbVRegionCSector21'
p1444
(dp1445
I0
(F791.9049072265625
F-612.6212158203125
F2598.936279296875
tp1446
sI1
(F783.6744995117188
F-518.3617553710938
F2598.912109375
tp1447
sI2
(F775.4921875
F-424.1303405761719
F2598.8876953125
tp1448
sI3
(F767.2811279296875
F-329.88653564453125
F2598.863525390625
tp1449
sg6
(F779.5881805419922
F-471.24996185302734
F2598.89990234375
tp1450
ssS'TTbVRegionCSector22'
p1451
(dp1452
I0
(F759.0640258789062
F-235.6440887451172
F2598.839111328125
tp1453
sI1
(F750.858642578125
F-141.40887451171875
F2598.814697265625
tp1454
sI2
(F742.6536865234375
F-47.163719177246094
F2598.79052734375
tp1455
sg6
(F750.8587849934896
F-141.4055608113607
F2598.8147786458335
tp1456
ssS'TTbVRegionCSector23'
p1457
(dp1458
I0
(F734.4795532226562
F47.024017333984375
F2598.76611328125
tp1459
sI1
(F726.2371215820312
F141.26177978515625
F2598.741943359375
tp1460
sI2
(F718.0206298828125
F235.50840759277344
F2598.717529296875
tp1461
sg6
(F726.2457682291666
F141.26473490397134
F2598.7418619791665
tp1462
ssS'TTbVRegionASector17'
p1463
(dp1464
I0
(F-313.8912048339844
F-612.716064453125
F2598.9736328125
tp1465
sI1
(F-322.1618347167969
F-518.4708862304688
F2598.96142578125
tp1466
sI2
(F-330.4299011230469
F-424.2353515625
F2598.949462890625
tp1467
sI3
(F-338.697509765625
F-329.9964904785156
F2598.937255859375
tp1468
sg6
(F-326.2951126098633
F-471.35469818115234
F2598.9554443359375
tp1469
ssS'TTaURegionBSector12'
p1470
(dp1471
I0
(F32.44017791748047
F366.5574645996094
F2379.10498046875
tp1472
sI1
(F40.65158462524414
F460.8045349121094
F2379.10498046875
tp1473
sI2
(F48.874053955078125
F555.043212890625
F2379.10498046875
tp1474
sI3
(F57.097660064697266
F649.2875366210938
F2379.10498046875
tp1475
sg6
(F44.765869140625
F507.9231872558594
F2379.10498046875
tp1476
ssS'TTaURegionASector18'
p1477
(dp1478
I0
(F-294.6417236328125
F-235.6776123046875
F2367.407958984375
tp1479
sI1
(F-286.4056091308594
F-141.43765258789062
F2367.41259765625
tp1480
sI2
(F-278.17401123046875
F-47.20059585571289
F2367.41748046875
tp1481
sg6
(F-286.40711466471356
F-141.43862024943033
F2367.4126790364585
tp1482
ssS'TTaURegionCSector22'
p1483
(dp1484
I0
(F624.721435546875
F-235.64280700683594
F2367.316650390625
tp1485
sI1
(F633.0049438476562
F-141.4111328125
F2367.296630859375
tp1486
sI2
(F641.277099609375
F-47.16937255859375
F2367.276611328125
tp1487
sg6
(F633.0011596679688
F-141.40777079264322
F2367.296630859375
tp1488
ssS'TTaURegionCSector23'
p1489
(dp1490
I0
(F649.545654296875
F47.017555236816406
F2367.256591796875
tp1491
sI1
(F657.8137817382812
F141.25306701660156
F2367.236572265625
tp1492
sI2
(F666.0904541015625
F235.49111938476562
F2367.21630859375
tp1493
sg6
(F657.8166300455729
F141.25391387939453
F2367.2364908854165
tp1494
ssS'TTaURegionCSector20'
p1495
(dp1496
I0
(F581.4066772460938
F329.7875061035156
F2371.786865234375
tp1497
sI1
(F589.6817016601562
F424.03314208984375
F2371.765869140625
tp1498
sI2
(F597.9247436523438
F518.2824096679688
F2371.744873046875
tp1499
sI3
(F606.175048828125
F612.515380859375
F2371.7236328125
tp1500
sg6
(F593.7970428466797
F471.1546096801758
F2371.7553100585938
tp1501
ssS'TTaURegionCSector21'
p1502
(dp1503
I0
(F591.6337280273438
F-612.6033325195312
F2367.39697265625
tp1504
sI1
(F599.9033203125
F-518.3572387695312
F2367.376953125
tp1505
sI2
(F608.18408203125
F-424.1203308105469
F2367.356689453125
tp1506
sI3
(F616.4534912109375
F-329.8799743652344
F2367.336669921875
tp1507
sg6
(F604.0436553955078
F-471.24021911621094
F2367.3668212890625
tp1508
ssS'TTaURegionCSector24'
p1509
(dp1510
I0
(F674.37109375
F329.72882080078125
F2367.1962890625
tp1511
sI1
(F682.6423950195312
F423.9698486328125
F2367.17626953125
tp1512
sI2
(F690.9163818359375
F518.1990356445312
F2367.15625
tp1513
sI3
(F699.18212890625
F612.4447021484375
F2367.13623046875
tp1514
sg6
(F686.7779998779297
F471.0856018066406
F2367.166259765625
tp1515
ssS'TTbVRegionBSector14'
p1516
(dp1517
I0
(F-8.25868034362793
F83.7129898071289
F2591.09033203125
tp1518
sg6
(F-8.25868034362793
F83.7129898071289
F2591.09033203125
tp1519
ssS'TTbVRegionBSector15'
p1520
(dp1521
I0
(F-16.432655334472656
F177.9583740234375
F2591.09033203125
tp1522
sI1
(F-24.606876373291016
F272.2020568847656
F2591.09033203125
tp1523
sg6
(F-20.519765853881836
F225.08021545410156
F2591.09033203125
tp1524
ssS'TTbVRegionBSector16'
p1525
(dp1526
I0
(F-32.782981872558594
F366.4530334472656
F2591.09033203125
tp1527
sI1
(F-40.97724914550781
F460.6941833496094
F2591.09033203125
tp1528
sI2
(F-49.14437484741211
F554.9393310546875
F2591.09033203125
tp1529
sI3
(F-57.322471618652344
F649.1901245117188
F2591.09033203125
tp1530
sg6
(F-45.056769371032715
F507.8191680908203
F2591.09033203125
tp1531
ssS'TTbVRegionBSector17'
p1532
(dp1533
I0
(F140.87179565429688
F-612.6829833984375
F2603.779296875
tp1534
sI1
(F132.64356994628906
F-518.438232421875
F2603.7109375
tp1535
sI2
(F124.4050064086914
F-424.1902160644531
F2603.642578125
tp1536
sI3
(F116.19113159179688
F-329.9549560546875
F2603.57421875
tp1537
sg6
(F128.52787590026855
F-471.3165969848633
F2603.6767578125
tp1538
ssS'TTbVRegionBSector10'
p1539
(dp1540
I0
(F-116.54399871826172
F329.80841064453125
F2603.246826171875
tp1541
sI1
(F-124.76322174072266
F424.0498352050781
F2603.243408203125
tp1542
sI2
(F-132.96888732910156
F518.2965698242188
F2603.240234375
tp1543
sI3
(F-141.17132568359375
F612.5518798828125
F2603.23681640625
tp1544
sg6
(F-128.86185836791992
F471.17667388916016
F2603.2418212890625
tp1545
ssS'TTbVRegionBSector11'
p1546
(dp1547
I0
(F56.95405578613281
F-649.5782470703125
F2592.170166015625
tp1548
sI1
(F48.65053939819336
F-555.3350830078125
F2592.170166015625
tp1549
sI2
(F40.338714599609375
F-461.101806640625
F2592.170166015625
tp1550
sI3
(F32.023250579833984
F-366.8597106933594
F2592.170166015625
tp1551
sg6
(F44.49164009094238
F-508.21871185302734
F2592.170166015625
tp1552
ssS'TTbVRegionBSector12'
p1553
(dp1554
I0
(F23.69934844970703
F-272.6282958984375
F2592.170166015625
tp1555
sI1
(F15.400251388549805
F-178.40211486816406
F2592.170166015625
tp1556
sg6
(F19.549799919128418
F-225.51520538330078
F2592.170166015625
tp1557
ssS'TTbVRegionBSector13'
p1558
(dp1559
I0
(F7.100866794586182
F-84.16439056396484
F2592.170166015625
tp1560
sg6
(F7.100866794586182
F-84.16439056396484
F2592.170166015625
tp1561
ssS'TTbVRegionBSector18'
p1562
(dp1563
I0
(F107.94772338867188
F-235.7131805419922
F2603.505615234375
tp1564
sI1
(F99.72500610351562
F-141.47784423828125
F2603.437255859375
tp1565
sg6
(F103.83636474609375
F-188.59551239013672
F2603.471435546875
tp1566
ssS'TTbVRegionBSector19'
p1567
(dp1568
I0
(F91.50537872314453
F-47.23481750488281
F2603.368896484375
tp1569
sg6
(F91.50537872314453
F-47.23481750488281
F2603.368896484375
tp1570
ssS'TTbXRegionCSector4'
p1571
(dp1572
I0
(F273.02191162109375
F330.9605712890625
F2635.390625
tp1573
sI1
(F273.0240478515625
F425.567138671875
F2635.328369140625
tp1574
sI2
(F273.0302429199219
F520.161376953125
F2635.266357421875
tp1575
sI3
(F273.04364013671875
F614.760498046875
F2635.204345703125
tp1576
sg6
(F273.0299606323242
F472.8623962402344
F2635.2974243164062
tp1577
ssS'TTaXRegionASector18'
p1578
(dp1579
I0
(F-272.92791748046875
F-236.71017456054688
F2335.2802734375
tp1580
sI1
(F-272.9464416503906
F-142.10194396972656
F2335.287353515625
tp1581
sI2
(F-272.9559631347656
F-47.49372100830078
F2335.29443359375
tp1582
sg6
(F-272.9434407552083
F-142.10194651285806
F2335.287353515625
tp1583
ssS'TTaXRegionASector19'
p1584
(dp1585
I0
(F-272.97479248046875
F47.04887008666992
F2335.301513671875
tp1586
sI1
(F-272.9985656738281
F141.64968872070312
F2335.308837890625
tp1587
sI2
(F-273.0129089355469
F236.2529754638672
F2335.31591796875
tp1588
sg6
(F-272.99542236328125
F141.65051142374674
F2335.3087565104165
tp1589
ssS'TTaURegionBSector13'
p1590
(dp1591
I0
(F33.77785873413086
F-612.5497436523438
F2367.9052734375
tp1592
sI1
(F42.01108169555664
F-518.3070678710938
F2367.855712890625
tp1593
sI2
(F50.27047348022461
F-424.06170654296875
F2367.805908203125
tp1594
sI3
(F58.516632080078125
F-329.8267517089844
F2367.75634765625
tp1595
sg6
(F46.14401149749756
F-471.18631744384766
F2367.830810546875
tp1596
ssS'TTaXRegionBSector8'
p1597
(dp1598
I0
(F0.00617446843534708
F-273.99114990234375
F2322.97314453125
tp1599
sI1
(F0.11972811073064804
F-179.39453125
F2322.97314453125
tp1600
sg6
(F0.06295128958299756
F-226.69284057617188
F2322.97314453125
tp1601
ssS'TTaXRegionASector12'
p1602
(dp1603
I0
(F-458.2367858886719
F330.7350158691406
F2335.431396484375
tp1604
sI1
(F-458.28106689453125
F425.3366394042969
F2335.4482421875
tp1605
sI2
(F-458.3185729980469
F519.9349975585938
F2335.46484375
tp1606
sI3
(F-458.3670654296875
F614.5415649414062
F2335.481689453125
tp1607
sg6
(F-458.3008728027344
F472.6370544433594
F2335.45654296875
tp1608
ssS'TTaXRegionASector13'
p1609
(dp1610
I0
(F-366.0323486328125
F-615.08935546875
F2330.714111328125
tp1611
sI1
(F-366.03851318359375
F-520.4852294921875
F2330.73046875
tp1612
sI2
(F-366.03167724609375
F-425.881103515625
F2330.7470703125
tp1613
sI3
(F-366.02166748046875
F-331.28192138671875
F2330.763427734375
tp1614
sg6
(F-366.0310516357422
F-473.1844024658203
F2330.73876953125
tp1615
ssS'TTaXRegionASector10'
p1616
(dp1617
I0
(F-457.9949645996094
F-236.8124542236328
F2335.3310546875
tp1618
sI1
(F-458.03448486328125
F-142.2182159423828
F2335.34765625
tp1619
sI2
(F-458.07879638671875
F-47.62070083618164
F2335.364501953125
tp1620
sg6
(F-458.0360819498698
F-142.21712366739908
F2335.3477376302085
tp1621
ssS'TTaXRegionASector11'
p1622
(dp1623
I0
(F-458.12005615234375
F46.9350471496582
F2335.381103515625
tp1624
sI1
(F-458.1613464355469
F141.53668212890625
F2335.39794921875
tp1625
sI2
(F-458.19329833984375
F236.132568359375
F2335.414794921875
tp1626
sg6
(F-458.1582336425781
F141.53476587931314
F2335.39794921875
tp1627
ssS'TTaXRegionASector16'
p1628
(dp1629
I0
(F-366.0154113769531
F330.8656005859375
F2330.878662109375
tp1630
sI1
(F-366.0090026855469
F425.46722412109375
F2330.895263671875
tp1631
sI2
(F-366.0113830566406
F520.0680541992188
F2330.91162109375
tp1632
sI3
(F-366.0097351074219
F614.6729736328125
F2330.927978515625
tp1633
sg6
(F-366.0113830566406
F472.7684631347656
F2330.9033813476562
tp1634
ssS'TTaXRegionASector17'
p1635
(dp1636
I0
(F-272.8658142089844
F-615.109375
F2335.251953125
tp1637
sI1
(F-272.87939453125
F-520.5093383789062
F2335.259033203125
tp1638
sI2
(F-272.8901672363281
F-425.9085388183594
F2335.26611328125
tp1639
sI3
(F-272.9113464355469
F-331.3101806640625
F2335.273193359375
tp1640
sg6
(F-272.88668060302734
F-473.20935821533203
F2335.2625732421875
tp1641
ssS'TTaXRegionASector14'
p1642
(dp1643
I0
(F-366.0240783691406
F-236.6852264404297
F2330.780029296875
tp1644
sI1
(F-366.0208740234375
F-142.0868682861328
F2330.79638671875
tp1645
sI2
(F-366.0303039550781
F-47.49016571044922
F2330.812744140625
tp1646
sg6
(F-366.02508544921875
F-142.08742014567056
F2330.79638671875
tp1647
ssS'TTaXRegionASector15'
p1648
(dp1649
I0
(F-366.01885986328125
F47.06559371948242
F2330.829345703125
tp1650
sI1
(F-366.0222473144531
F141.66641235351562
F2330.845703125
tp1651
sI2
(F-366.0198059082031
F236.26806640625
F2330.8623046875
tp1652
sg6
(F-366.0203043619792
F141.66669082641602
F2330.8457845052085
tp1653
ssS'TTaURegionASector11'
p1654
(dp1655
I0
(F-455.7799072265625
F46.886390686035156
F2367.62060546875
tp1656
sI1
(F-447.5656433105469
F141.12908935546875
F2367.62744140625
tp1657
sI2
(F-439.36480712890625
F235.37625122070312
F2367.63427734375
tp1658
sg6
(F-447.5701192220052
F141.13057708740234
F2367.62744140625
tp1659
ssS'TTaXRegionBSector5'
p1660
(dp1661
I0
(F-87.26458740234375
F141.7426300048828
F2335.150634765625
tp1662
sI1
(F-87.25845336914062
F236.34262084960938
F2335.165771484375
tp1663
sg6
(F-87.26152038574219
F189.0426254272461
F2335.158203125
tp1664
ssS'TTaXRegionBSector15'
p1665
(dp1666
I0
(F87.0268325805664
F-47.16862487792969
F2335.601318359375
tp1667
sg6
(F87.0268325805664
F-47.16862487792969
F2335.601318359375
tp1668
ssS'TTaURegionBSector10'
p1669
(dp1670
I0
(F7.765408515930176
F83.83792877197266
F2379.10498046875
tp1671
sg6
(F7.765408515930176
F83.83792877197266
F2379.10498046875
tp1672
ssS'TTaXRegionBSector3'
p1673
(dp1674
I0
(F-87.28362274169922
F-47.404075622558594
F2335.1201171875
tp1675
sg6
(F-87.28362274169922
F-47.404075622558594
F2335.1201171875
tp1676
ssS'TTaURegionASector15'
p1677
(dp1678
I0
(F-363.0487976074219
F47.00041198730469
F2371.967041015625
tp1679
sI1
(F-354.82025146484375
F141.24021911621094
F2371.96435546875
tp1680
sI2
(F-346.59930419921875
F235.48480224609375
F2371.9619140625
tp1681
sg6
(F-354.8227844238281
F141.24181111653647
F2371.9644368489585
tp1682
ssS'TTaURegionASector14'
p1683
(dp1684
I0
(F-387.69146728515625
F-235.677490234375
F2371.974609375
tp1685
sI1
(F-379.4791259765625
F-141.4412384033203
F2371.97216796875
tp1686
sI2
(F-371.2661437988281
F-47.195953369140625
F2371.969482421875
tp1687
sg6
(F-379.4789123535156
F-141.43822733561197
F2371.9720865885415
tp1688
ssS'TTaURegionASector17'
p1689
(dp1690
I0
(F-327.61517333984375
F-612.6473388671875
F2367.388671875
tp1691
sI1
(F-319.3810119628906
F-518.3939819335938
F2367.393310546875
tp1692
sI2
(F-311.14019775390625
F-424.15936279296875
F2367.398193359375
tp1693
sI3
(F-302.89910888671875
F-329.9132385253906
F2367.403076171875
tp1694
sg6
(F-315.25887298583984
F-471.27848052978516
F2367.3958129882812
tp1695
ssS'TTbVRegionBSector21'
p1696
(dp1697
I0
(F75.04905700683594
F141.20286560058594
F2603.232177734375
tp1698
sI1
(F66.82034301757812
F235.44427490234375
F2603.163818359375
tp1699
sg6
(F70.93470001220703
F188.32357025146484
F2603.197998046875
tp1700
ssS'TTbVRegionBSector20'
p1701
(dp1702
I0
(F83.26258087158203
F46.95847702026367
F2603.300537109375
tp1703
sg6
(F83.26258087158203
F46.95847702026367
F2603.300537109375
tp1704
ssS'TTbVRegionBSector23'
p1705
(dp1706
I0
(F234.21253967285156
F-612.6956176757812
F2599.46044921875
tp1707
sI1
(F225.97816467285156
F-518.45556640625
F2599.38720703125
tp1708
sI2
(F217.7412872314453
F-424.2123718261719
F2599.314208984375
tp1709
sI3
(F209.5110321044922
F-329.9710998535156
F2599.240966796875
tp1710
sg6
(F221.86075592041016
F-471.3336639404297
F2599.3507080078125
tp1711
ssS'TTbVRegionBSector22'
p1712
(dp1713
I0
(F58.593746185302734
F329.68670654296875
F2603.095458984375
tp1714
sI1
(F50.36568069458008
F423.9190673828125
F2603.02685546875
tp1715
sI2
(F42.12674331665039
F518.16455078125
F2602.95849609375
tp1716
sI3
(F33.89390563964844
F612.411376953125
F2602.89013671875
tp1717
sg6
(F46.24501895904541
F471.04542541503906
F2602.9927368164062
tp1718
ssS'TTbVRegionBSector25'
p1719
(dp1720
I0
(F176.58172607421875
F46.95216751098633
F2598.948486328125
tp1721
sI1
(F168.34849548339844
F141.1865692138672
F2598.87548828125
tp1722
sI2
(F160.114501953125
F235.42916870117188
F2598.80224609375
tp1723
sg6
(F168.3482411702474
F141.18930180867514
F2598.8754069010415
tp1724
ssS'TTbVRegionBSector24'
p1725
(dp1726
I0
(F201.27467346191406
F-235.73118591308594
F2599.16796875
tp1727
sI1
(F193.04226684570312
F-141.48431396484375
F2599.0947265625
tp1728
sI2
(F184.81314086914062
F-47.24872589111328
F2599.021728515625
tp1729
sg6
(F193.0433603922526
F-141.48807525634766
F2599.0948079427085
tp1730
ssS'TTbVRegionBSector26'
p1731
(dp1732
I0
(F151.87962341308594
F329.6725158691406
F2598.729248046875
tp1733
sI1
(F143.64002990722656
F423.9104919433594
F2598.656005859375
tp1734
sI2
(F135.4138641357422
F518.1529541015625
F2598.5830078125
tp1735
sI3
(F127.18370819091797
F612.4016723632812
F2598.509765625
tp1736
sg6
(F139.52930641174316
F471.03440856933594
F2598.6195068359375
tp1737
ss.