(i__main__
LogFile
p0
(dp1
S'_installed_files'
p2
(dp3
S'../../../Tr/TrackMonitors/x86_64-slc6-gcc48-opt/genConf/TrackMonitors'
p4
(dp5
S'../../../../Tr/TrackMonitors/x86_64-slc6-gcc48-opt/genConf/TrackMonitors/TrackMonitors_user_confDb.py'
p6
S'../../../InstallArea/x86_64-slc6-gcc48-opt/python/TrackMonitors/TrackMonitors_user_confDb.py'
p7
sS'../../../../Tr/TrackMonitors/x86_64-slc6-gcc48-opt/genConf/TrackMonitors/TrackMonitors_confDb.py'
p8
S'../../../InstallArea/x86_64-slc6-gcc48-opt/python/TrackMonitors/TrackMonitors_confDb.py'
p9
sS'../../../../Tr/TrackMonitors/x86_64-slc6-gcc48-opt/genConf/TrackMonitors/TrackMonitorsConf.py'
p10
S'../../../InstallArea/x86_64-slc6-gcc48-opt/python/TrackMonitors/TrackMonitorsConf.py'
p11
ssS'../../../Tr/TrackMonitors/x86_64-slc6-gcc48-opt/libTrackMonitors.so'
p12
S'../../../InstallArea/x86_64-slc6-gcc48-opt/lib/libTrackMonitors.so'
p13
sS'../../Tr/TrackMonitors/python'
p14
(dp15
S'../../../../Tr/TrackMonitors/python/TrackMonitors/BGIRecoConf.py'
p16
S'../../../InstallArea/x86_64-slc6-gcc48-opt/python/TrackMonitors/BGIRecoConf.py'
p17
sS'../../../../Tr/TrackMonitors/python/TrackMonitors/ConfiguredTrackMonitors.py'
p18
S'../../../InstallArea/x86_64-slc6-gcc48-opt/python/TrackMonitors/ConfiguredTrackMonitors.py'
p19
sS'../../../../Tr/TrackMonitors/python/TrackMonitors/__init__.py'
p20
S'../../../InstallArea/x86_64-slc6-gcc48-opt/python/TrackMonitors/__init__.py'
p21
sssb.